MPASM 5.81                         LEARN.ASM   2-20-2020  11:22:54         PAGE  1


LOC  OBJECT CODE     LINE SOURCE TEXT
  VALUE

                      00001 #include p18f87k22.inc
                      00001         LIST
                      00002 
                      00003 ;==========================================================================
                      00004 ; Build date : Jul 23 2018
                      00005 ;  MPASM PIC18F87K22 processor include
                      00006 ; 
                      00007 ;  (c) Copyright 1999-2018 Microchip Technology, All rights reserved
                      00008 ;==========================================================================
                      00009 
                      02986         LIST
                      00002         
  0000                00003     extern LCD_Send_Byte_D,LCD_shift, LCD_clear
  0000                00004     global LEARN
                      00005  
                      00006 acs3    udata_acs 
000000                00007 counter_row         res 1
000001                00008 counter_column      res 1
000002                00009 delay_count_l1      res 1
000003                00010 delay_count_l2      res 1
000004                00011 delay_count_l3      res 1
000005                00012 Number_pressed_1_int   res 1
000006                00013 Number_pressed_2_int   res 1
000007                00014 Number_pressed_1_string   res 1
000008                00015 Number_pressed_2_string   res 1
000009                00016 integer                res 1
00000A                00017 string                  res 1
00000B                00018 result                 res 1 
00000C                00019 random_number   res 1
00000D                00020 guess       res 1
00000E                00021 guess_1  res 1 
00000F                00022 guess_2   res 1 
000010                00023 output_1   res 1 
000011                00024 output_2   res 1
000012                00025 guess_1_str res 1
000013                00026 guess_2_str  res 1
000014                00027 count  res 1
                      00028 
                      00029 learn code
                      00030     
                      00031     
000000                00032 LEARN
000000 0E88           00033     movlw   b'10001000'
000002 EC?? F???      00034     call    LCD_shift 
000006 0E3F           00035     movlw   0x3F
000008 EC?? F???      00036     call    LCD_Send_Byte_D
00000C 0E2B           00037     movlw   0x2B
00000E EC?? F???      00038     call    LCD_Send_Byte_D
000012 0E3F           00039     movlw   0x3F
000014 EC?? F???      00040     call    LCD_Send_Byte_D
000018 0E3D           00041     movlw   0x3D
00001A EC?? F???      00042     call    LCD_Send_Byte_D
00001E 0E3F           00043     movlw   0x3F
MPASM 5.81                         LEARN.ASM   2-20-2020  11:22:54         PAGE  2


LOC  OBJECT CODE     LINE SOURCE TEXT
  VALUE

000020 EC?? F???      00044     call    LCD_Send_Byte_D
000024                00045 learn
000024 0E00           00046     movlw   0x00
000026 6E??           00047     movwf   result 
000028 0E00           00048     movlw   0x00
00002A 6E??           00049     movwf   Number_pressed_1_int
00002C 0E00           00050     movlw   0x00
00002E 6E??           00051     movwf   Number_pressed_2_int
000030 0E20           00052     movlw   ' '
000032 6E??           00053     movwf   Number_pressed_1_string
000034 0E20           00054     movlw   ' '
000036 6E??           00055     movwf   Number_pressed_2_string
000038 0E01           00056     movlw   0x01
00003A 6E??           00057     movwf   random_number
00003C 0E20           00058     movlw   ' '
00003E 6E??           00059     movwf   output_2
000040 EC?? F???      00060     call    Numberpad 
000044 C??? F???      00061     movff   random_number, Number_pressed_1_int
000048 EC?? F???      00062     call    learn_delay 
00004C EC?? F???      00063     call    Numberpad 
000050 C??? F???      00064     movff   random_number, Number_pressed_2_int 
000054 0E00           00065 cr0 movlw   0x00
000056 62??           00066     cpfseq  Number_pressed_1_int
000058 D???           00067     bra     cr1
00005A 0E30           00068     movlw   '0'
00005C 6E??           00069     movwf   Number_pressed_1_string 
00005E D???           00070     bra     cr20
000060 0E01           00071 cr1 movlw   0x01
000062 62??           00072     cpfseq  Number_pressed_1_int
000064 D???           00073     bra     cr2
000066 0E31           00074     movlw   '1'
000068 6E??           00075     movwf   Number_pressed_1_string
00006A D???           00076     bra     cr20
00006C 0E02           00077 cr2 movlw   0x02
00006E 62??           00078     cpfseq  Number_pressed_1_int
000070 D???           00079     bra     cr3
000072 0E32           00080     movlw   '2'
000074 6E??           00081     movwf   Number_pressed_1_string 
000076 D???           00082     bra     cr20
000078 0E03           00083 cr3 movlw   0x03
00007A 62??           00084     cpfseq  Number_pressed_1_int
00007C D???           00085     bra     cr4
00007E 0E33           00086     movlw   '3'
000080 6E??           00087     movwf   Number_pressed_1_string 
000082 D???           00088     bra     cr20
000084 0E04           00089 cr4 movlw   0x04
000086 62??           00090     cpfseq  Number_pressed_1_int
000088 D???           00091     bra     cr5
00008A 0E34           00092     movlw   '4'
00008C 6E??           00093     movwf   Number_pressed_1_string 
00008E D???           00094     bra     cr20
000090 0E05           00095 cr5 movlw   0x05
000092 62??           00096     cpfseq  Number_pressed_1_int
MPASM 5.81                         LEARN.ASM   2-20-2020  11:22:54         PAGE  3


LOC  OBJECT CODE     LINE SOURCE TEXT
  VALUE

000094 D???           00097     bra     cr6
000096 0E35           00098     movlw   '5'
000098 6E??           00099     movwf   Number_pressed_1_string 
00009A D???           00100     bra     cr20
00009C 0E06           00101 cr6 movlw   0x06
00009E 62??           00102     cpfseq  Number_pressed_1_int
0000A0 D???           00103     bra     cr7
0000A2 0E36           00104     movlw   '6'
0000A4 6E??           00105     movwf   Number_pressed_1_string 
0000A6 D???           00106     bra     cr20
0000A8 0E07           00107 cr7 movlw   0x07
0000AA 62??           00108     cpfseq  Number_pressed_1_int
0000AC D???           00109     bra     cr8
0000AE 0E37           00110     movlw   '7'
0000B0 6E??           00111     movwf   Number_pressed_1_string 
0000B2 D???           00112     bra     cr20
0000B4 0E08           00113 cr8 movlw   0x08
0000B6 62??           00114     cpfseq  Number_pressed_1_int
0000B8 D???           00115     bra     cr9
0000BA 0E38           00116     movlw   '8'
0000BC 6E??           00117     movwf   Number_pressed_1_string 
0000BE D???           00118     bra     cr20
0000C0 0E39           00119 cr9 movlw   '9'
0000C2 6E??           00120     movwf   Number_pressed_1_string 
0000C4 D???           00121     bra     cr20
0000C6 0E00           00122 cr20 movlw   0x00
0000C8 62??           00123     cpfseq  Number_pressed_2_int
0000CA D???           00124     bra     cr21
0000CC 0E30           00125     movlw   '0'
0000CE 6E??           00126     movwf   Number_pressed_2_string 
0000D0 D???           00127     bra     calculate
0000D2 0E01           00128 cr21 movlw   0x01
0000D4 62??           00129     cpfseq  Number_pressed_2_int
0000D6 D???           00130     bra     cr22
0000D8 0E31           00131     movlw   '1'
0000DA 6E??           00132     movwf   Number_pressed_2_string 
0000DC D???           00133     bra     calculate
0000DE 0E02           00134 cr22 movlw   0x02
0000E0 62??           00135     cpfseq  Number_pressed_2_int
0000E2 D???           00136     bra     cr23
0000E4 0E32           00137     movlw   '2'
0000E6 6E??           00138     movwf   Number_pressed_2_string 
0000E8 D???           00139     bra     calculate
0000EA 0E03           00140 cr23 movlw   0x03
0000EC 62??           00141     cpfseq  Number_pressed_2_int
0000EE D???           00142     bra     cr24
0000F0 0E33           00143     movlw   '3'
0000F2 6E??           00144     movwf   Number_pressed_2_string 
0000F4 D???           00145     bra     calculate
0000F6 0E04           00146 cr24 movlw   0x04
0000F8 62??           00147     cpfseq  Number_pressed_2_int
0000FA D???           00148     bra     cr25
0000FC 0E34           00149     movlw   '4'
MPASM 5.81                         LEARN.ASM   2-20-2020  11:22:54         PAGE  4


LOC  OBJECT CODE     LINE SOURCE TEXT
  VALUE

0000FE 6E??           00150     movwf   Number_pressed_2_string 
000100 D???           00151     bra     calculate
000102 0E05           00152 cr25 movlw   0x05
000104 62??           00153     cpfseq  Number_pressed_2_int
000106 D???           00154     bra     cr26
000108 0E35           00155     movlw   '5'
00010A 6E??           00156     movwf   Number_pressed_2_string 
00010C D???           00157     bra     calculate
00010E 0E06           00158 cr26 movlw   0x06
000110 62??           00159     cpfseq  Number_pressed_2_int
000112 D???           00160     bra     cr27
000114 0E36           00161     movlw   '6'
000116 6E??           00162     movwf   Number_pressed_2_string 
000118 D???           00163     bra     calculate
00011A 0E07           00164 cr27 movlw   0x07
00011C 62??           00165     cpfseq  Number_pressed_2_int
00011E D???           00166     bra     cr28
000120 0E37           00167     movlw   '7'
000122 6E??           00168     movwf   Number_pressed_2_string 
000124 D???           00169     bra     calculate
000126 0E08           00170 cr28 movlw   0x08
000128 62??           00171     cpfseq  Number_pressed_2_int
00012A D???           00172     bra     cr29
00012C 0E38           00173     movlw   '8'
00012E 6E??           00174     movwf   Number_pressed_2_string 
000130 D???           00175     bra     calculate
000132 0E39           00176 cr29 movlw   '9'
000134 6E??           00177     movwf   Number_pressed_2_string 
000136 D???           00178     bra     calculate
000138                00179 calculate
000138 0E88           00180     movlw   b'10001000'
00013A EC?? F???      00181     call    LCD_shift 
00013E 50??           00182     movf    Number_pressed_1_string, w
000140 EC?? F???      00183     call    LCD_Send_Byte_D
000144 0E8A           00184     movlw   b'10001010'
000146 EC?? F???      00185     call    LCD_shift 
00014A 50??           00186     movf    Number_pressed_2_string, w 
00014C EC?? F???      00187     call    LCD_Send_Byte_D      ;send two random numbers to screen
000150                00188 guessed 
000150 50??           00189     movf    Number_pressed_1_int, w
000152 2600           00190     addwf   result, 1
000154 50??           00191     movf    Number_pressed_2_int, w
000156 2600           00192     addwf   result, 1
000158 50??           00193     movf    result, w
00015A 0E09           00194     movlw   0x09
00015C 64??           00195     cpfsgt  result 
00015E D???           00196     bra     single_input
000160 D???           00197     bra     double_input 
000162                00198 double_input
000162 EC?? F???      00199     call    learn_delay
000166 EC?? F???      00200     call    learn_delay
00016A EC?? F???      00201     call    Numberpad
00016E C??? F???      00202     movff   string,  guess_1_str
MPASM 5.81                         LEARN.ASM   2-20-2020  11:22:54         PAGE  5


LOC  OBJECT CODE     LINE SOURCE TEXT
  VALUE

000172 EC?? F???      00203     call    learn_delay
000176 EC?? F???      00204     call    Numberpad
00017A C??? F???      00205     movff   string, guess_2_str
00017E EC?? F???      00206     call    learn_delay
000182 0E8C           00207     movlw   b'10001100'
000184 EC?? F???      00208     call    LCD_shift
000188 50??           00209     movf    guess_1_str, w
00018A EC?? F???      00210     call    LCD_Send_Byte_D
00018E 50??           00211     movf    guess_2_str, w 
000190 EC?? F???      00212     call    LCD_Send_Byte_D
000194                00213 check_double_result
000194 0E0A           00214     movlw   0x0A
000196 62??           00215     cpfseq  result
000198 D???           00216     bra     c_11
00019A 0E31           00217     movlw   '1'
00019C 6E??           00218     movwf   output_1
00019E 0E30           00219     movlw   '0'
0001A0 6E??           00220     movwf   output_2
0001A2 D???           00221     bra     output_double 
0001A4 0E0B           00222 c_11 movlw   0x0B
0001A6 62??           00223     cpfseq  result
0001A8 D???           00224     bra     c_12
0001AA 0E31           00225     movlw   '1'
0001AC 6E??           00226     movwf   output_1
0001AE 0E31           00227     movlw   '1'
0001B0 6E??           00228     movwf   output_2
0001B2 D???           00229     bra     output_double
0001B4                00230 c_12
0001B4 0E0C           00231     movlw   0x0C
0001B6 62??           00232     cpfseq  result
0001B8 D???           00233     bra     c_13
0001BA 0E31           00234     movlw   '1'
0001BC 6E??           00235     movwf   output_1
0001BE 0E32           00236     movlw   '2'
0001C0 6E??           00237     movwf   output_2
0001C2 D???           00238     bra     output_double
0001C4 0E0D           00239 c_13 movlw   0x0D
0001C6 62??           00240     cpfseq  result
0001C8 D???           00241     bra     c_14
0001CA 0E31           00242     movlw   '1'
0001CC 6E??           00243     movwf   output_1
0001CE 0E33           00244     movlw   '3'
0001D0 6E??           00245     movwf   output_2
0001D2 D???           00246     bra     output_double 
0001D4 0E0E           00247 c_14 movlw   0x0E
0001D6 62??           00248     cpfseq  result
0001D8 D???           00249     bra     c_15
0001DA 0E31           00250     movlw   '1'
0001DC 6E??           00251     movwf   output_1
0001DE 0E34           00252     movlw   '4'
0001E0 6E??           00253     movwf   output_2
0001E2 D???           00254     bra     output_double 
0001E4 0E0F           00255 c_15 movlw   0x0F
MPASM 5.81                         LEARN.ASM   2-20-2020  11:22:54         PAGE  6


LOC  OBJECT CODE     LINE SOURCE TEXT
  VALUE

0001E6 62??           00256     cpfseq  result
0001E8 D???           00257     bra     c_16
0001EA 0E31           00258     movlw   '1'
0001EC 6E??           00259     movwf   output_1
0001EE 0E35           00260     movlw   '5'
0001F0 6E??           00261     movwf   output_2
0001F2 D???           00262     bra     output_double
0001F4 0E10           00263 c_16 movlw   0x10
0001F6 62??           00264     cpfseq  result
0001F8 D???           00265     bra     c_17
0001FA 0E31           00266     movlw   '1'
0001FC 6E??           00267     movwf   output_1
0001FE 0E36           00268     movlw   '6'
000200 6E??           00269     movwf   output_2
000202 D???           00270     bra     output_double
000204 0E11           00271 c_17 movlw   0x11
000206 62??           00272     cpfseq  result
000208 D???           00273     bra     c_18
00020A 0E31           00274     movlw   '1'
00020C 6E??           00275     movwf   output_1
00020E 0E37           00276     movlw   '7'
000210 6E??           00277     movwf   output_2
000212 D???           00278     bra     output_double
000214                00279 c_18 
000214 0E31           00280     movlw   '1'
000216 6E??           00281     movwf   output_1
000218 0E38           00282     movlw   '8'
00021A 6E??           00283     movwf   output_2
00021C D???           00284     bra     output_double
00021E                00285 output_double
00021E 50??           00286     movf    output_1,w
000220 62??           00287     cpfseq  guess_1_str
000222 D???           00288     bra     wrong
000224 50??           00289     movf    output_2,w
000226 62??           00290     cpfseq  guess_2_str
000228 D???           00291     bra     wrong 
00022A D???           00292     bra     right 
                      00293  
                      00294    
00022C                00295 single_input
00022C EC?? F???      00296     call    learn_delay
000230 EC?? F???      00297     call    learn_delay
000234 EC?? F???      00298     call    Numberpad
000238 C??? F???      00299     movff   string,  guess_1_str
00023C 0E8C           00300     movlw   b'10001100'
00023E EC?? F???      00301     call    LCD_shift
000242 50??           00302     movf    guess_1_str, w
000244 EC?? F???      00303     call    LCD_Send_Byte_D
000248                00304 check_single_result
000248 0E00           00305     movlw   0x00
00024A 62??           00306     cpfseq  result
00024C D???           00307     bra     c_1s
00024E 0E30           00308     movlw   '0'
MPASM 5.81                         LEARN.ASM   2-20-2020  11:22:54         PAGE  7


LOC  OBJECT CODE     LINE SOURCE TEXT
  VALUE

000250 6E??           00309     movwf   output_1
000252 D???           00310     bra     output_single 
000254 0E01           00311 c_1s movlw   0x01
000256 62??           00312     cpfseq  result
000258 D???           00313     bra     c_2s
00025A 0E31           00314     movlw   '1'
00025C 6E??           00315     movwf   output_1
00025E D???           00316     bra     output_single 
000260 0E02           00317 c_2s movlw   0x02
000262 62??           00318     cpfseq  result
000264 D???           00319     bra     c_3s
000266 0E32           00320     movlw   '2'
000268 6E??           00321     movwf   output_1
00026A D???           00322     bra     output_single 
00026C 0E03           00323 c_3s movlw   0x03
00026E 62??           00324     cpfseq  result
000270 D???           00325     bra     c_4s
000272 0E33           00326     movlw   '3'
000274 6E??           00327     movwf   output_1
000276 D???           00328     bra     output_single 
000278 0E04           00329 c_4s movlw   0x04
00027A 62??           00330     cpfseq  result
00027C D???           00331     bra     c_5s
00027E 0E34           00332     movlw   '4'
000280 6E??           00333     movwf   output_1
000282 D???           00334     bra     output_single 
000284 0E05           00335 c_5s movlw   0x05
000286 62??           00336     cpfseq  result
000288 D???           00337     bra     c_6s
00028A 0E35           00338     movlw   '5'
00028C 6E??           00339     movwf   output_1
00028E D???           00340     bra     output_single 
000290 0E06           00341 c_6s movlw   0x06
000292 62??           00342     cpfseq  result
000294 D???           00343     bra     c_7s
000296 0E36           00344     movlw   '6'
000298 6E??           00345     movwf   output_1
00029A D???           00346     bra     output_single 
00029C 0E07           00347 c_7s movlw   0x07
00029E 62??           00348     cpfseq  result
0002A0 D???           00349     bra     c_8s
0002A2 0E37           00350     movlw   '7'
0002A4 6E??           00351     movwf   output_1
0002A6 D???           00352     bra     output_single 
0002A8 0E08           00353 c_8s movlw   0x08
0002AA 62??           00354     cpfseq  result
0002AC D???           00355     bra     c_9s
0002AE 0E38           00356     movlw   '8'
0002B0 6E??           00357     movwf   output_1
0002B2 D???           00358     bra     output_single 
0002B4                00359 c_9s 
0002B4 0E39           00360     movlw   '9'
0002B6 6E??           00361     movwf   output_1
MPASM 5.81                         LEARN.ASM   2-20-2020  11:22:54         PAGE  8


LOC  OBJECT CODE     LINE SOURCE TEXT
  VALUE

0002B8 D???           00362     bra     output_single   
0002BA                00363 output_single
0002BA 50??           00364     movf    output_1,w
0002BC 62??           00365     cpfseq  guess_1_str
0002BE D???           00366     bra     wrong 
0002C0 D???           00367     bra     right 
                      00368     
0002C2                00369 wrong 
0002C2 0E8F           00370     movlw   b'10001111'
0002C4 EC?? F???      00371     call    LCD_shift 
0002C8 0E07           00372     movlw   0x07
0002CA EC?? F???      00373     call    LCD_Send_Byte_D
0002CE EC?? F???      00374     call    learn_delay 
0002D2 0E8C           00375     movlw   b'10001100'
0002D4 EC?? F???      00376     call    LCD_shift
0002D8 0E20           00377     movlw   ' '
0002DA EC?? F???      00378     call    LCD_Send_Byte_D
0002DE 0E20           00379     movlw   ' '
0002E0 EC?? F???      00380     call    LCD_Send_Byte_D
0002E4 0E20           00381     movlw   ' '
0002E6 EC?? F???      00382     call    LCD_Send_Byte_D
0002EA 0E8F           00383     movlw   b'10001111'
0002EC EC?? F???      00384     call    LCD_shift
0002F0 0E20           00385     movlw   ' '
0002F2 EC?? F???      00386     call    LCD_Send_Byte_D
0002F6 D???           00387     bra     guessed
0002F8                00388 right 
0002F8 0E8F           00389     movlw   b'10001111'
0002FA EC?? F???      00390     call    LCD_shift 
0002FE 0E05           00391     movlw   0x05
000300 EC?? F???      00392     call    LCD_Send_Byte_D
000304 EC?? F???      00393     call    learn_delay 
000308 0E88           00394     movlw   b'10001000'
00030A EC?? F???      00395     call    LCD_shift 
00030E 0E20           00396     movlw   ' ' 
000310 EC?? F???      00397     call    LCD_Send_Byte_D
000314 0E20           00398     movlw   ' ' 
000316 EC?? F???      00399     call    LCD_Send_Byte_D
00031A 0E20           00400     movlw   ' ' 
00031C EC?? F???      00401     call    LCD_Send_Byte_D
000320 0E20           00402     movlw   ' ' 
000322 EC?? F???      00403     call    LCD_Send_Byte_D
000326 0E20           00404     movlw   ' ' 
000328 EC?? F???      00405     call    LCD_Send_Byte_D
00032C 0E20           00406     movlw   ' ' 
00032E EC?? F???      00407     call    LCD_Send_Byte_D
000332 0E20           00408     movlw   ' ' 
000334 EC?? F???      00409     call    LCD_Send_Byte_D
000338 0E20           00410     movlw   ' ' 
00033A EC?? F???      00411     call    LCD_Send_Byte_D
00033E 0012           00412     return
                      00413  
                      00414     
MPASM 5.81                         LEARN.ASM   2-20-2020  11:22:54         PAGE  9


LOC  OBJECT CODE     LINE SOURCE TEXT
  VALUE

000340                00415 Numberpad
000340 0EFF           00416     movlw 0xFF
000342 6E??           00417     movwf  count
000344 EC?? F???      00418     call setup_row
000348 D???           00419     bra read_row
00034A                00420 column
00034A EC?? F???      00421     call setup_column
00034E D???           00422     bra read_column
                      00423     
                      00424     
000350                00425 setup_row 
000350 0EF0           00426     movlw 0xF0
000352 6E96           00427     movwf TRISE, ACCESS  
000354 8D53           00428     bsf PADCFG1, REPU, BANKED
000356 0E0F           00429     movlw 0x0F
000358 6E84           00430     movwf PORTE, ACCESS
00035A 0EFF           00431     movlw 0xFF
00035C 6E??           00432     movwf  count
00035E EC?? F???      00433     call   delay
000362 0012           00434     return 
                      00435    
000364                00436 read_row     
000364 0E01           00437     movlw 0x01
000366 2600           00438     addwf random_number, 1
000368 0E0A           00439     movlw 0xA
00036A 62??           00440     cpfseq random_number
00036C D???           00441     bra    continue
00036E D???           00442     bra    rst 
000370                00443 rst
000370 0E01           00444     movlw 0x01
000372 6E??           00445     movwf random_number
000374 D???           00446     bra   continue 
000376                00447 continue
000376 A884           00448     btfss PORTE, RE4
000378 D???           00449     bra check_1
00037A 0E00           00450     movlw 0x0
00037C 6E??           00451     movwf counter_row
00037E D???           00452     bra column
000380                00453 check_1
000380 AA84           00454     btfss PORTE, RE5
000382 D???           00455     bra check_2
000384 0E01           00456     movlw 0x01
000386 6E??           00457     movwf counter_row
000388 D???           00458     bra column
00038A                00459 check_2
00038A AC84           00460     btfss PORTE, RE6
00038C D???           00461     bra check_3
00038E 0E02           00462     movlw 0x02
000390 6E??           00463     movwf counter_row
000392 D???           00464     bra column
000394                00465 check_3
000394 AE84           00466     btfss PORTE, RE7
000396 D???           00467     bra read_row
MPASM 5.81                         LEARN.ASM   2-20-2020  11:22:54         PAGE 10


LOC  OBJECT CODE     LINE SOURCE TEXT
  VALUE

000398 0E03           00468     movlw 0x03
00039A 6E??           00469     movwf counter_row
00039C D???           00470     bra column
                      00471     
00039E                00472 setup_column
00039E 0E0F           00473     movlw 0x0F
0003A0 6E96           00474     movwf TRISE, ACCESS 
0003A2 8D53           00475     bsf PADCFG1, REPU, BANKED
0003A4 0EF0           00476     movlw 0xF0
0003A6 6E84           00477     movwf PORTE, ACCESS
0003A8 0EFF           00478     movlw 0xFF
0003AA 6E??           00479     movwf  count
0003AC EC?? F???      00480     call   delay
0003B0 0012           00481     return 
                      00482 
0003B2                00483 read_column   
0003B2 A084           00484     btfss PORTE, RE0
0003B4 D???           00485     bra check_5
0003B6 0E04           00486     movlw 0x04
0003B8 6E??           00487     movwf counter_column
0003BA D???           00488     bra decode
0003BC                00489 check_5
0003BC A284           00490     btfss PORTE, RE1
0003BE D???           00491     bra check_6
0003C0 0E05           00492     movlw 0x05
0003C2 6E??           00493     movwf counter_column
0003C4 D???           00494     bra decode
0003C6                00495 check_6
0003C6 A484           00496     btfss PORTE, RE2
0003C8 D???           00497     bra check_7
0003CA 0E06           00498     movlw 0x06
0003CC 6E??           00499     movwf counter_column
0003CE D???           00500     bra decode
0003D0                00501 check_7
0003D0 A684           00502     btfss PORTE, RE3
0003D2 D???           00503     bra read_row
0003D4 0E07           00504     movlw 0x07
0003D6 6E??           00505     movwf counter_column
0003D8 D???           00506     bra decode
                      00507   
0003DA                00508 delay 
0003DA 2E??           00509     decfsz count
0003DC D???           00510     bra delay
0003DE 0012           00511     return 
                      00512 
0003E0                00513 decode
0003E0 0E00           00514     movlw 0x00
0003E2 62??           00515     cpfseq counter_row
0003E4 D???           00516     bra row_1
0003E6 D???           00517     bra column_11
0003E8 0012           00518     return 
0003EA                00519 column_11
0003EA 0E04           00520     movlw 0x04
MPASM 5.81                         LEARN.ASM   2-20-2020  11:22:54         PAGE 11


LOC  OBJECT CODE     LINE SOURCE TEXT
  VALUE

0003EC 62??           00521     cpfseq counter_column
0003EE D???           00522     bra column_12
0003F0 0E01           00523     movlw  0x01
0003F2 6E??           00524     movwf integer 
0003F4 0E31           00525     movlw  '1'
0003F6 6E??           00526     movwf string 
0003F8 0012           00527     return 
0003FA                00528 column_12
0003FA 0E05           00529     movlw 0x05
0003FC 62??           00530     cpfseq counter_column
0003FE D???           00531     bra column_13
000400 0E02           00532     movlw  0x02
000402 6E??           00533     movwf integer 
000404 0E32           00534     movlw  '2'
000406 6E??           00535     movwf string 
000408 0012           00536     return 
00040A                00537 column_13
00040A 0E06           00538     movlw 0x06
00040C 62??           00539     cpfseq counter_column
00040E D???           00540     bra column_14
000410 0E03           00541     movlw  0x03
000412 6E??           00542     movwf integer 
000414 0E33           00543     movlw  '3'
000416 6E??           00544     movwf string 
000418                00545 column_14
000418 0012           00546     return 
00041A                00547 row_1 
00041A 0E01           00548     movlw 0x01
00041C 62??           00549     cpfseq counter_row
00041E D???           00550     bra row_2
000420 D???           00551     bra column_21
000422                00552 column_21
000422 0E04           00553     movlw 0x04
000424 62??           00554     cpfseq counter_column
000426 D???           00555     bra column_22
000428 0E04           00556     movlw  0x04
00042A 6E??           00557     movwf integer 
00042C 0E34           00558     movlw  '4'
00042E 6E??           00559     movwf string 
000430 0012           00560     return 
000432                00561 column_22
000432 0E05           00562     movlw 0x05
000434 62??           00563     cpfseq counter_column
000436 D???           00564     bra column_23
000438 0E05           00565     movlw  0x05
00043A 6E??           00566     movwf integer
00043C 0E35           00567     movlw  '5'
00043E 6E??           00568     movwf string 
000440 0012           00569     return 
000442                00570 column_23
000442 0E06           00571     movlw 0x06
000444 62??           00572     cpfseq counter_column
000446 D???           00573     bra column_24
MPASM 5.81                         LEARN.ASM   2-20-2020  11:22:54         PAGE 12


LOC  OBJECT CODE     LINE SOURCE TEXT
  VALUE

000448 0E06           00574     movlw  0x06
00044A 6E??           00575     movwf integer
00044C 0E36           00576     movlw  '6'
00044E 6E??           00577     movwf string 
000450 0012           00578     return 
000452                00579 column_24
000452 0012           00580     return 
000454                00581 row_2
000454 0E02           00582     movlw 0x02
000456 62??           00583     cpfseq counter_row
000458 D???           00584     bra row_3
00045A D???           00585     bra column_31
00045C                00586 column_31
00045C 0E04           00587     movlw 0x04
00045E 62??           00588     cpfseq counter_column
000460 D???           00589     bra column_32
000462 0E07           00590     movlw  0x07
000464 6E??           00591     movwf integer
000466 0E37           00592     movlw  '7'
000468 6E??           00593     movwf string 
00046A 0012           00594     return 
00046C                00595 column_32
00046C 0E05           00596     movlw 0x05
00046E 62??           00597     cpfseq counter_column
000470 D???           00598     bra column_33 
000472 0E08           00599     movlw  0x08
000474 6E??           00600     movwf integer
000476 0E38           00601     movlw  '8'
000478 6E??           00602     movwf string 
00047A 0012           00603     return 
00047C                00604 column_33
00047C 0E06           00605     movlw 0x06
00047E 62??           00606     cpfseq counter_column
000480 D???           00607     bra column_34
000482 0E09           00608     movlw  0x09
000484 6E??           00609     movwf integer
000486 0E39           00610     movlw  '9'
000488 6E??           00611     movwf string 
00048A 0012           00612     return 
00048C                00613 column_34
00048C 0012           00614     return 
00048E                00615 row_3
00048E D???           00616     bra column_41
000490                00617 column_41
000490 0E04           00618     movlw 0x04
000492 62??           00619     cpfseq counter_column
000494 D???           00620     bra column_42
000496 0012           00621     return 
000498                00622 column_42
000498 0E05           00623     movlw 0x05
00049A 62??           00624     cpfseq counter_column
00049C D???           00625     bra column_43
00049E 0E00           00626     movlw  0x0
MPASM 5.81                         LEARN.ASM   2-20-2020  11:22:54         PAGE 13


LOC  OBJECT CODE     LINE SOURCE TEXT
  VALUE

0004A0 6E??           00627     movwf integer
0004A2 0E30           00628     movlw  '0'
0004A4 6E??           00629     movwf string 
0004A6 0012           00630     return 
0004A8                00631 column_43
0004A8 0E06           00632     movlw 0x06
0004AA 62??           00633     cpfseq counter_column
0004AC D???           00634     bra column_44
0004AE 0012           00635     return 
0004B0                00636 column_44
0004B0 0012           00637     return 
                      00638     
                      00639     
                      00640     
                      00641 
0004B2                00642 learn_delay
0004B2 0E90           00643         movlw   0x90
0004B4 6E??           00644         movwf   delay_count_l1
0004B6                00645 delay_1       
0004B6 2E??           00646         decfsz  delay_count_l1
0004B8 D???           00647         bra     nested_2
0004BA 0012           00648         return
                      00649         
0004BC                00650 nested_2
0004BC 0E90           00651         movlw   0x90
0004BE 6E??           00652         movwf   delay_count_l2
0004C0 2E??           00653 delay_2 decfsz  delay_count_l2
0004C2 D???           00654         bra     nested_3
0004C4 D???           00655         bra     delay_1
                      00656 
0004C6                00657 nested_3
0004C6 0E90           00658         movlw   0x90
0004C8 6E??           00659         movwf   delay_count_l3
0004CA                00660 delay_3
0004CA 2E??           00661         decfsz  delay_count_l3
0004CC D???           00662         bra     delay_3
0004CE D???           00663         bra     delay_2
                      00664         
                      00665         
                      00666         
                      00667     end
MPASM 5.81                         LEARN.ASM   2-20-2020  11:22:54         PAGE 14


SYMBOL TABLE
  LABEL                             VALUE 

A                                 00000000
A16                               00000000
A17                               00000001
A18                               00000002
A19                               00000003
ABDEN                             00000000
ABDOVF                            00000007
ACCESS                            00000000
ACKDT                             00000005
ACKEN                             00000004
ACKSTAT                           00000006
ACQT0                             00000003
ACQT1                             00000004
ACQT2                             00000005
AD0                               00000000
AD1                               00000001
AD10                              00000002
AD11                              00000003
AD12                              00000004
AD13                              00000005
AD14                              00000006
AD15                              00000007
AD2                               00000002
AD3                               00000003
AD4                               00000004
AD5                               00000005
AD6                               00000006
AD7                               00000007
AD8                               00000000
AD9                               00000001
ADCMD                             00000000
ADCON0                            00000FC2
ADCON1                            00000FC1
ADCON2                            00000FC0
ADCS0                             00000000
ADCS1                             00000001
ADCS2                             00000002
ADDEN                             00000003
ADDEN1                            00000003
ADDEN2                            00000003
ADEN                              00000003
ADFM                              00000007
ADIE                              00000006
ADIF                              00000006
ADIP                              00000006
ADMSK1                            00000001
ADMSK2                            00000002
ADMSK3                            00000003
ADMSK4                            00000004
ADMSK5                            00000005
ADON                              00000000
ADRES                             00000FC3
ADRESH                            00000FC4
MPASM 5.81                         LEARN.ASM   2-20-2020  11:22:54         PAGE 15


SYMBOL TABLE
  LABEL                             VALUE 

ADRESL                            00000FC3
ALE                               00000000
ALRMCFG                           00000F5B
ALRMEN                            00000007
ALRMPTR0                          00000000
ALRMPTR1                          00000001
ALRMRPT                           00000F5A
ALRMVAL                           00000F58
ALRMVALH                          00000F59
ALRMVALL                          00000F58
AMASK0                            00000002
AMASK1                            00000003
AMASK2                            00000004
AMASK3                            00000005
AN0                               00000000
AN1                               00000001
AN10                              00000005
AN11                              00000006
AN12                              00000004
AN13                              00000005
AN14                              00000006
AN15                              00000007
AN16                              00000004
AN17                              00000003
AN18                              00000002
AN19                              00000001
AN2                               00000002
AN20                              00000003
AN21                              00000002
AN22                              00000001
AN23                              00000000
AN3                               00000003
AN4                               00000005
AN5                               00000007
AN6                               00000001
AN7                               00000002
AN8                               00000003
AN9                               00000004
ANCON0                            00000F25
ANCON1                            00000F24
ANCON2                            00000F23
ANSEL0                            00000000
ANSEL1                            00000001
ANSEL10                           00000002
ANSEL11                           00000003
ANSEL12                           00000004
ANSEL13                           00000005
ANSEL14                           00000006
ANSEL15                           00000007
ANSEL16                           00000000
ANSEL17                           00000001
ANSEL18                           00000002
ANSEL19                           00000003
MPASM 5.81                         LEARN.ASM   2-20-2020  11:22:54         PAGE 16


SYMBOL TABLE
  LABEL                             VALUE 

ANSEL2                            00000002
ANSEL20                           00000004
ANSEL21                           00000005
ANSEL22                           00000006
ANSEL23                           00000007
ANSEL3                            00000003
ANSEL4                            00000004
ANSEL5                            00000005
ANSEL6                            00000006
ANSEL7                            00000007
ANSEL8                            00000000
ANSEL9                            00000001
ARPT0                             00000000
ARPT1                             00000001
ARPT2                             00000002
ARPT3                             00000003
ARPT4                             00000004
ARPT5                             00000005
ARPT6                             00000006
ARPT7                             00000007
BA0                               00000004
BANKED                            00000001
BAUDCON                           00000F65
BAUDCON1                          00000F65
BAUDCON2                          00000F20
BAUDCTL                           00000F65
BCL1IE                            00000003
BCL1IF                            00000003
BCL1IP                            00000003
BCL2IE                            00000004
BCL2IF                            00000004
BCL2IP                            00000004
BCLIE                             00000003
BCLIF                             00000003
BCLIP                             00000003
BF                                00000000
BGVST                             00000006
BOR                               00000000
BRG16                             00000003
BRGH                              00000002
BRGH1                             00000002
BRGH2                             00000002
BSR                               00000FE0
C                                 00000000
C10TSEL0                          00000004
C1INA                             00000006
C1INB                             00000005
C1INC                             00000006
C1OUT                             00000002
C1TSEL0                           00000000
C1TSEL1                           00000001
C1TSEL2                           00000002
C2INA                             00000004
MPASM 5.81                         LEARN.ASM   2-20-2020  11:22:54         PAGE 17


SYMBOL TABLE
  LABEL                             VALUE 

C2INB                             00000003
C2INC                             00000004
C2IND                             00000005
C2OUT                             00000001
C2TSEL0                           00000003
C2TSEL1                           00000004
C2TSEL2                           00000005
C3INA                             00000002
C3INB                             00000003
C3INC                             00000004
C3OUT                             00000001
C3TSEL0                           00000006
C3TSEL1                           00000007
C4TSEL0                           00000000
C4TSEL1                           00000001
C5TSEL0                           00000002
C6TSEL0                           00000004
C7TSEL0                           00000006
C7TSEL1                           00000007
C8TSEL0                           00000000
C8TSEL1                           00000001
C9TSEL0                           00000002
CAL0                              00000000
CAL1                              00000001
CAL2                              00000002
CAL3                              00000003
CAL4                              00000004
CAL5                              00000005
CAL6                              00000006
CAL7                              00000007
CCH0                              00000000
CCH1                              00000001
CCP1                              00000002
CCP10                             00000002
CCP10CON                          00000F40
CCP10IE                           00000007
CCP10IF                           00000007
CCP10IP                           00000007
CCP10M0                           00000000
CCP10M1                           00000001
CCP10M2                           00000002
CCP10M3                           00000003
CCP10MD                           00000007
CCP10OD                           00000007
CCP10X                            00000005
CCP10Y                            00000004
CCP1CON                           00000FBB
CCP1IE                            00000001
CCP1IF                            00000001
CCP1IP                            00000001
CCP1M0                            00000000
CCP1M1                            00000001
CCP1M2                            00000002
MPASM 5.81                         LEARN.ASM   2-20-2020  11:22:54         PAGE 18


SYMBOL TABLE
  LABEL                             VALUE 

CCP1M3                            00000003
CCP1MD                            00000005
CCP1OD                            00000005
CCP1X                             00000005
CCP1Y                             00000004
CCP2CON                           00000F4E
CCP2IE                            00000002
CCP2IF                            00000002
CCP2IP                            00000002
CCP2M0                            00000000
CCP2M1                            00000001
CCP2M2                            00000002
CCP2M3                            00000003
CCP2MD                            00000006
CCP2OD                            00000006
CCP2X                             00000005
CCP2Y                             00000004
CCP2_P2A                          00000003
CCP2_PORTC                        00000001
CCP2_PORTE                        00000007
CCP3                              00000000
CCP3CON                           00000F49
CCP3IE                            00000000
CCP3IF                            00000000
CCP3IP                            00000000
CCP3M0                            00000000
CCP3M1                            00000001
CCP3M2                            00000002
CCP3M3                            00000003
CCP3MD                            00000007
CCP3OD                            00000000
CCP4                              00000003
CCP4CON                           00000F77
CCP4IE                            00000001
CCP4IF                            00000001
CCP4IP                            00000001
CCP4M0                            00000000
CCP4M1                            00000001
CCP4M2                            00000002
CCP4M3                            00000003
CCP4MD                            00000001
CCP4OD                            00000001
CCP4X                             00000005
CCP4Y                             00000004
CCP5                              00000004
CCP5CON                           00000F74
CCP5IE                            00000002
CCP5IF                            00000002
CCP5IP                            00000002
CCP5M0                            00000000
CCP5M1                            00000001
CCP5M2                            00000002
CCP5M3                            00000003
MPASM 5.81                         LEARN.ASM   2-20-2020  11:22:54         PAGE 19


SYMBOL TABLE
  LABEL                             VALUE 

CCP5MD                            00000002
CCP5OD                            00000002
CCP5X                             00000005
CCP5Y                             00000004
CCP6CON                           00000F71
CCP6IE                            00000003
CCP6IF                            00000003
CCP6IP                            00000003
CCP6M0                            00000000
CCP6M1                            00000001
CCP6M2                            00000002
CCP6M3                            00000003
CCP6MD                            00000003
CCP6OD                            00000003
CCP6X                             00000005
CCP6Y                             00000004
CCP6_PORTE                        00000006
CCP6_PORTH                        00000007
CCP7CON                           00000F6E
CCP7IE                            00000004
CCP7IF                            00000004
CCP7IP                            00000004
CCP7M0                            00000000
CCP7M1                            00000001
CCP7M2                            00000002
CCP7M3                            00000003
CCP7MD                            00000004
CCP7OD                            00000004
CCP7X                             00000005
CCP7Y                             00000004
CCP7_PORTE                        00000005
CCP7_PORTH                        00000006
CCP8CON                           00000F46
CCP8IE                            00000005
CCP8IF                            00000005
CCP8IP                            00000005
CCP8M0                            00000000
CCP8M1                            00000001
CCP8M2                            00000002
CCP8M3                            00000003
CCP8MD                            00000005
CCP8OD                            00000005
CCP8X                             00000005
CCP8Y                             00000004
CCP8_PORTE                        00000004
CCP8_PORTH                        00000005
CCP9CON                           00000F43
CCP9IE                            00000006
CCP9IF                            00000006
CCP9IP                            00000006
CCP9M0                            00000000
CCP9M1                            00000001
CCP9M2                            00000002
MPASM 5.81                         LEARN.ASM   2-20-2020  11:22:54         PAGE 20


SYMBOL TABLE
  LABEL                             VALUE 

CCP9M3                            00000003
CCP9MD                            00000006
CCP9OD                            00000006
CCP9X                             00000005
CCP9Y                             00000004
CCP9_PORTE                        00000003
CCP9_PORTH                        00000004
CCPR1                             00000FBC
CCPR10                            00000F41
CCPR10H                           00000F42
CCPR10L                           00000F41
CCPR1H                            00000FBD
CCPR1L                            00000FBC
CCPR2                             00000F4F
CCPR2H                            00000F50
CCPR2L                            00000F4F
CCPR3                             00000F4A
CCPR3H                            00000F4B
CCPR3L                            00000F4A
CCPR4                             00000F78
CCPR4H                            00000F79
CCPR4L                            00000F78
CCPR5                             00000F75
CCPR5H                            00000F76
CCPR5L                            00000F75
CCPR6                             00000F72
CCPR6H                            00000F73
CCPR6L                            00000F72
CCPR7                             00000F6F
CCPR7H                            00000F70
CCPR7L                            00000F6F
CCPR8                             00000F47
CCPR8H                            00000F48
CCPR8L                            00000F47
CCPR9                             00000F44
CCPR9H                            00000F45
CCPR9L                            00000F44
CCPTMRS0                          00000F2D
CCPTMRS1                          00000F2C
CCPTMRS2                          00000F2B
CE                                00000005
CFGS                              00000006
CHIME                             00000006
CHS0                              00000002
CHS1                              00000003
CHS2                              00000004
CHS3                              00000005
CHS4                              00000006
CHSN0                             00000000
CHSN1                             00000001
CHSN2                             00000002
CK1                               00000006
CK2                               00000001
MPASM 5.81                         LEARN.ASM   2-20-2020  11:22:54         PAGE 21


SYMBOL TABLE
  LABEL                             VALUE 

CKE                               00000006
CKP                               00000004
CLKI                              00000007
CLKO                              00000006
CM                                00000005
CM1CON                            00000F54
CM1CON1                           00000F54
CM2CON                            00000F2F
CM2CON1                           00000F2F
CM3CON                            00000F2E
CM3CON1                           00000F2E
CMP1IE                            00000000
CMP1IF                            00000000
CMP1IP                            00000000
CMP1MD                            00000000
CMP1OUT                           00000005
CMP2IE                            00000001
CMP2IF                            00000001
CMP2IP                            00000001
CMP2MD                            00000001
CMP2OUT                           00000006
CMP3IE                            00000002
CMP3IF                            00000002
CMP3IP                            00000002
CMP3MD                            00000002
CMP3OUT                           00000007
CMPL0                             00000006
CMPL1                             00000007
CMSTAT                            00000FB4
CMSTATUS                          00000FB4
COE                               00000006
CON                               00000007
CPOL                              00000005
CREF                              00000002
CREN                              00000004
CREN1                             00000004
CREN2                             00000004
CSRC                              00000007
CSRC1                             00000007
CSRC2                             00000007
CTDIN                             00000001
CTED1                             00000002
CTED2                             00000003
CTMUCONH                          00000F57
CTMUCONL                          00000F56
CTMUDS                            00000000
CTMUEN                            00000007
CTMUI                             00000003
CTMUICON                          00000F55
CTMUIE                            00000003
CTMUIF                            00000003
CTMUIP                            00000003
CTMUMD                            00000006
MPASM 5.81                         LEARN.ASM   2-20-2020  11:22:54         PAGE 22


SYMBOL TABLE
  LABEL                             VALUE 

CTMUSIDL                          00000005
CTPLS                             00000000
CTTRIG                            00000000
CVR0                              00000000
CVR1                              00000001
CVR2                              00000002
CVR3                              00000003
CVR4                              00000004
CVRCON                            00000FB5
CVREF                             00000005
CVREN                             00000007
CVROE                             00000006
CVRSS                             00000005
D                                 00000005
DATA_ADDRESS                      00000005
DC                                00000001
DC10B0                            00000004
DC10B1                            00000005
DC1B0                             00000004
DC1B1                             00000005
DC2B0                             00000004
DC2B1                             00000005
DC3B0                             00000004
DC3B1                             00000005
DC4B0                             00000004
DC4B1                             00000005
DC5B0                             00000004
DC5B1                             00000005
DC6B0                             00000004
DC6B1                             00000005
DC7B0                             00000004
DC7B1                             00000005
DC8B0                             00000004
DC8B1                             00000005
DC9B0                             00000004
DC9B1                             00000005
DDRA                              TRISA
DDRB                              TRISB
DDRC                              TRISC
DDRD                              TRISD
DDRE                              TRISE
DONE                              00000001
DT1                               00000007
DT2                               00000002
D_A                               00000005
D_NOT_A                           00000005
EBDIS                             00000007
ECCP1AS                           00000FBF
ECCP1AS0                          00000004
ECCP1AS1                          00000005
ECCP1AS2                          00000006
ECCP1ASE                          00000007
ECCP1CON                          00000FBB
MPASM 5.81                         LEARN.ASM   2-20-2020  11:22:54         PAGE 23


SYMBOL TABLE
  LABEL                             VALUE 

ECCP1DEL                          00000FBE
ECCP2AS                           00000F52
ECCP2AS0                          00000004
ECCP2AS1                          00000005
ECCP2AS2                          00000006
ECCP2ASE                          00000007
ECCP2CON                          00000F4E
ECCP2DEL                          00000F51
ECCP3AS                           00000F4D
ECCP3AS0                          00000004
ECCP3AS1                          00000005
ECCP3AS2                          00000006
ECCP3ASE                          00000007
ECCP3DEL                          00000F4C
EDG1POL                           00000004
EDG1SEL0                          00000002
EDG1SEL1                          00000003
EDG1STAT                          00000000
EDG2POL                           00000007
EDG2SEL0                          00000005
EDG2SEL1                          00000006
EDG2STAT                          00000001
EDGEN                             00000003
EDGSEQEN                          00000002
EEADR                             00000F62
EEADRH                            00000F63
EECON1                            00000F7F
EECON2                            00000F7E
EEDATA                            00000F61
EEIE                              00000004
EEIF                              00000004
EEIP                              00000004
EEPGD                             00000007
EMBMD                             00000000
EVPOL0                            00000003
EVPOL1                            00000004
FAST                              00000001
FERR                              00000002
FERR1                             00000002
FERR2                             00000002
FLT0                              00000000
FREE                              00000004
FSR0                              00000000
FSR0H                             00000FEA
FSR0L                             00000FE9
FSR1                              00000001
FSR1H                             00000FE2
FSR1L                             00000FE1
FSR2                              00000002
FSR2H                             00000FDA
FSR2L                             00000FD9
GCEN                              00000007
GIE                               00000007
MPASM 5.81                         LEARN.ASM   2-20-2020  11:22:54         PAGE 24


SYMBOL TABLE
  LABEL                             VALUE 

GIEH                              00000007
GIEL                              00000006
GIE_GIEH                          00000007
GO                                00000001
GO_NOT_DONE                       00000001
HALFSEC                           00000003
HFIOFS                            00000002
HLVDCON                           00000FA8
HLVDEN                            00000004
HLVDIE                            00000002
HLVDIF                            00000002
HLVDIN                            00000005
HLVDIP                            00000002
HLVDL0                            00000000
HLVDL1                            00000001
HLVDL2                            00000002
HLVDL3                            00000003
I2C_DAT                           00000005
I2C_READ                          00000002
I2C_START                         00000003
I2C_STOP                          00000004
IBF                               00000007
IBOV                              00000005
IDISSEN                           00000001
IDLEN                             00000007
INDF0                             00000FEF
INDF1                             00000FE7
INDF2                             00000FDF
INT0                              00000000
INT0E                             00000004
INT0F                             00000001
INT0IE                            00000004
INT0IF                            00000001
INT1                              00000001
INT1E                             00000003
INT1F                             00000000
INT1IE                            00000003
INT1IF                            00000000
INT1IP                            00000006
INT1P                             00000006
INT2                              00000002
INT2E                             00000004
INT2F                             00000001
INT2IE                            00000004
INT2IF                            00000001
INT2IP                            00000007
INT2P                             00000007
INT3                              00000003
INT3E                             00000005
INT3F                             00000002
INT3IE                            00000005
INT3IF                            00000002
INT3IP                            00000001
MPASM 5.81                         LEARN.ASM   2-20-2020  11:22:54         PAGE 25


SYMBOL TABLE
  LABEL                             VALUE 

INT3P                             00000001
INTCON                            00000FF2
INTCON2                           00000FF1
INTCON3                           00000FF0
INTEDG0                           00000006
INTEDG1                           00000005
INTEDG2                           00000004
INTEDG3                           00000003
INTSRC                            00000007
IPEN                              00000007
IPR1                              00000F9F
IPR2                              00000FA2
IPR3                              00000FA5
IPR4                              00000FB8
IPR5                              00000FD2
IPR6                              00000FA9
IRCF0                             00000004
IRCF1                             00000005
IRCF2                             00000006
IRNG0                             00000000
IRNG1                             00000001
IRVST                             00000005
ITRIM0                            00000002
ITRIM1                            00000003
ITRIM2                            00000004
ITRIM3                            00000005
ITRIM4                            00000006
ITRIM5                            00000007
KBI0                              00000004
KBI1                              00000005
KBI2                              00000006
KBI3                              00000007
LATA                              00000F89
LATA0                             00000000
LATA1                             00000001
LATA2                             00000002
LATA3                             00000003
LATA4                             00000004
LATA5                             00000005
LATA6                             00000006
LATA7                             00000007
LATB                              00000F8A
LATB0                             00000000
LATB1                             00000001
LATB2                             00000002
LATB3                             00000003
LATB4                             00000004
LATB5                             00000005
LATB6                             00000006
LATB7                             00000007
LATC                              00000F8B
LATC0                             00000000
LATC1                             00000001
MPASM 5.81                         LEARN.ASM   2-20-2020  11:22:54         PAGE 26


SYMBOL TABLE
  LABEL                             VALUE 

LATC2                             00000002
LATC3                             00000003
LATC4                             00000004
LATC5                             00000005
LATC6                             00000006
LATC7                             00000007
LATD                              00000F8C
LATD0                             00000000
LATD1                             00000001
LATD2                             00000002
LATD3                             00000003
LATD4                             00000004
LATD5                             00000005
LATD6                             00000006
LATD7                             00000007
LATE                              00000F8D
LATE0                             00000000
LATE1                             00000001
LATE2                             00000002
LATE3                             00000003
LATE4                             00000004
LATE5                             00000005
LATE6                             00000006
LATE7                             00000007
LATF                              00000F8E
LATF1                             00000001
LATF2                             00000002
LATF3                             00000003
LATF4                             00000004
LATF5                             00000005
LATF6                             00000006
LATF7                             00000007
LATG                              00000F8F
LATG0                             00000000
LATG1                             00000001
LATG2                             00000002
LATG3                             00000003
LATG4                             00000004
LATH                              00000F90
LATH0                             00000000
LATH1                             00000001
LATH2                             00000002
LATH3                             00000003
LATH4                             00000004
LATH5                             00000005
LATH6                             00000006
LATH7                             00000007
LATJ                              00000F91
LATJ0                             00000000
LATJ1                             00000001
LATJ2                             00000002
LATJ3                             00000003
LATJ4                             00000004
MPASM 5.81                         LEARN.ASM   2-20-2020  11:22:54         PAGE 27


SYMBOL TABLE
  LABEL                             VALUE 

LATJ5                             00000005
LATJ6                             00000006
LATJ7                             00000007
LB                                00000006
LCD_Send_Byte_D                   00000000
LCD_clear                         00000000
LCD_shift                         00000000
LEARN                             00000000
LVDIE                             00000002
LVDIF                             00000002
LVDIP                             00000002
MEMCON                            00000F26
MFIOFS                            00000001
MFIOSEL                           00000000
MSK0                              00000000
MSK1                              00000001
MSK2                              00000002
MSK3                              00000003
MSK4                              00000004
MSK5                              00000005
MSK6                              00000006
MSK7                              00000007
N                                 00000004
NOT_A                             00000005
NOT_ADDRESS                       00000005
NOT_BOR                           00000000
NOT_CM                            00000005
NOT_CS                            00000002
NOT_DONE                          00000001
NOT_PD                            00000002
NOT_POR                           00000001
NOT_RBPU                          00000007
NOT_RC8                           00000006
NOT_RD                            00000000
NOT_RI                            00000004
NOT_SS2                           00000007
NOT_T1DONE                        00000003
NOT_T1SYNC                        00000002
NOT_T3DONE                        00000003
NOT_T3SYNC                        00000002
NOT_T5DONE                        00000003
NOT_T5SYNC                        00000002
NOT_T7DONE                        00000003
NOT_T7SYNC                        00000002
NOT_TO                            00000003
NOT_TX8                           00000006
NOT_W                             00000002
NOT_WR                            00000001
NOT_WRITE                         00000002
Number_pressed_1_int              00000005
Number_pressed_1_string           00000007
Number_pressed_2_int              00000006
Number_pressed_2_string           00000008
MPASM 5.81                         LEARN.ASM   2-20-2020  11:22:54         PAGE 28


SYMBOL TABLE
  LABEL                             VALUE 

Numberpad                         00000340
OBF                               00000006
ODCON1                            00000F29
ODCON2                            00000F28
ODCON3                            00000F27
OE                                00000001
OERR                              00000001
OERR1                             00000001
OERR2                             00000001
OSC1                              00000007
OSC2                              00000006
OSCCON                            00000FD3
OSCCON2                           00000F64
OSCFIE                            00000007
OSCFIF                            00000007
OSCFIP                            00000007
OSCTUNE                           00000F9B
OSTS                              00000003
OV                                00000003
P                                 00000004
P1A                               00000002
P1B                               00000006
P1C                               00000005
P1DC0                             00000000
P1DC1                             00000001
P1DC2                             00000002
P1DC3                             00000003
P1DC4                             00000004
P1DC5                             00000005
P1DC6                             00000006
P1M0                              00000006
P1M1                              00000007
P1RSEN                            00000007
P2A_PORTC                         00000001
P2A_PORTE                         00000007
P2B                               00000002
P2C                               00000001
P2D                               00000000
P2DC0                             00000000
P2DC1                             00000001
P2DC2                             00000002
P2DC3                             00000003
P2DC4                             00000004
P2DC5                             00000005
P2DC6                             00000006
P2M0                              00000006
P2M1                              00000007
P2RSEN                            00000007
P3B                               00000004
P3C                               00000003
P3DC0                             00000000
P3DC1                             00000001
P3DC2                             00000002
MPASM 5.81                         LEARN.ASM   2-20-2020  11:22:54         PAGE 29


SYMBOL TABLE
  LABEL                             VALUE 

P3DC3                             00000003
P3DC4                             00000004
P3DC5                             00000005
P3DC6                             00000006
P3M0                              00000006
P3M1                              00000007
P3RSEN                            00000007
PA3                               00000000
PADCFG1                           00000F53
PB1                               00000007
PB3                               00000005
PC                                00000FF9
PC1                               00000006
PC3                               00000004
PCL                               00000FF9
PCLATH                            00000FFA
PCLATU                            00000FFB
PD                                00000002
PD1                               00000004
PD3                               00000003
PEIE                              00000006
PEIE_GIEL                         00000006
PEN                               00000002
PGC                               00000006
PGD                               00000007
PGM                               00000005
PIE1                              00000F9D
PIE2                              00000FA0
PIE3                              00000FA3
PIE4                              00000FB6
PIE5                              00000FB9
PIE6                              00000F60
PIR1                              00000F9E
PIR2                              00000FA1
PIR3                              00000FA4
PIR4                              00000FB7
PIR5                              00000FBA
PIR6                              00000FA6
PLLEN                             00000006
PLUSW0                            00000FEB
PLUSW1                            00000FE3
PLUSW2                            00000FDB
PMD0                              00000F19
PMD1                              00000F18
PMD2                              00000F17
PMD3                              00000F16
POR                               00000001
PORTA                             00000F80
PORTB                             00000F81
PORTC                             00000F82
PORTD                             00000F83
PORTE                             00000F84
PORTF                             00000F85
MPASM 5.81                         LEARN.ASM   2-20-2020  11:22:54         PAGE 30


SYMBOL TABLE
  LABEL                             VALUE 

PORTG                             00000F86
PORTH                             00000F87
PORTJ                             00000F88
POSTDEC0                          00000FED
POSTDEC1                          00000FE5
POSTDEC2                          00000FDD
POSTINC0                          00000FEE
POSTINC1                          00000FE6
POSTINC2                          00000FDE
PR10                              00000F34
PR12                              00000F31
PR2                               00000FCB
PR4                               00000F6C
PR6                               00000F3A
PR8                               00000F37
PREINC0                           00000FEC
PREINC1                           00000FE4
PREINC2                           00000FDC
PROD                              00000FF3
PRODH                             00000FF4
PRODL                             00000FF3
PSA                               00000003
PSP0                              00000000
PSP1                              00000001
PSP2                              00000002
PSP3                              00000003
PSP4                              00000004
PSP5                              00000005
PSP6                              00000006
PSP7                              00000007
PSPCON                            00000FA7
PSPIE                             00000007
PSPIF                             00000007
PSPIP                             00000007
PSPMD                             00000007
PSPMODE                           00000004
PSS1AC0                           00000002
PSS1AC1                           00000003
PSS1BD0                           00000000
PSS1BD1                           00000001
PSS2AC0                           00000002
PSS2AC1                           00000003
PSS2BD0                           00000000
PSS2BD1                           00000001
PSS3AC0                           00000002
PSS3AC1                           00000003
PSS3BD0                           00000000
PSS3BD1                           00000001
PSTR1CON                          00000F9C
PSTR2CON                          00000F1B
PSTR3CON                          00000F1A
PWM1CON                           00000FBE
PWM2CON                           00000F51
MPASM 5.81                         LEARN.ASM   2-20-2020  11:22:54         PAGE 31


SYMBOL TABLE
  LABEL                             VALUE 

R                                 00000002
RA0                               00000000
RA1                               00000001
RA2                               00000002
RA3                               00000003
RA4                               00000004
RA5                               00000005
RA6                               00000006
RA7                               00000007
RB0                               00000000
RB1                               00000001
RB2                               00000002
RB3                               00000003
RB4                               00000004
RB5                               00000005
RB6                               00000006
RB7                               00000007
RBIE                              00000003
RBIF                              00000000
RBIP                              00000000
RBPU                              00000007
RC0                               00000000
RC1                               00000001
RC1IE                             00000005
RC1IF                             00000005
RC1IP                             00000005
RC2                               00000002
RC2IE                             00000005
RC2IF                             00000005
RC2IP                             00000005
RC3                               00000003
RC4                               00000004
RC5                               00000005
RC6                               00000006
RC7                               00000007
RC8_9                             00000006
RC9                               00000006
RCD8                              00000000
RCEN                              00000003
RCIDL                             00000006
RCIE                              00000005
RCIF                              00000005
RCIP                              00000005
RCON                              00000FD0
RCREG                             00000FAE
RCREG1                            00000FAE
RCREG2                            00000F1D
RCSTA                             00000FAB
RCSTA1                            00000FAB
RCSTA2                            00000F22
RD                                00000000
RD0                               00000000
RD1                               00000001
MPASM 5.81                         LEARN.ASM   2-20-2020  11:22:54         PAGE 32


SYMBOL TABLE
  LABEL                             VALUE 

RD16                              00000001
RD2                               00000002
RD3                               00000003
RD4                               00000004
RD5                               00000005
RD6                               00000006
RD7                               00000007
RDPU                              00000007
RE0                               00000000
RE1                               00000001
RE2                               00000002
RE3                               00000003
RE4                               00000004
RE5                               00000005
RE6                               00000006
RE7                               00000007
READ_WRITE                        00000002
REFO                              00000003
REFOCON                           00000F2A
REGSLP                            00000007
REPU                              00000006
RF1                               00000001
RF2                               00000002
RF3                               00000003
RF4                               00000004
RF5                               00000005
RF6                               00000006
RF7                               00000007
RG0                               00000000
RG1                               00000001
RG2                               00000002
RG3                               00000003
RG4                               00000004
RG5                               00000005
RH0                               00000000
RH1                               00000001
RH2                               00000002
RH3                               00000003
RH4                               00000004
RH5                               00000005
RH6                               00000006
RH7                               00000007
RI                                00000004
RJ0                               00000000
RJ1                               00000001
RJ2                               00000002
RJ3                               00000003
RJ4                               00000004
RJ5                               00000005
RJ6                               00000006
RJ7                               00000007
RJPU                              00000005
RODIV0                            00000000
MPASM 5.81                         LEARN.ASM   2-20-2020  11:22:54         PAGE 33


SYMBOL TABLE
  LABEL                             VALUE 

RODIV1                            00000001
RODIV2                            00000002
RODIV3                            00000003
ROON                              00000007
ROSEL                             00000004
ROSSLP                            00000005
RSEN                              00000001
RTCC                              00000004
RTCCAL                            00000F5E
RTCCFG                            00000F5F
RTCCIE                            00000000
RTCCIF                            00000000
RTCCIP                            00000000
RTCCMD                            00000005
RTCEN                             00000007
RTCOE                             00000002
RTCPTR0                           00000000
RTCPTR1                           00000001
RTCSYNC                           00000004
RTCVAL                            00000F5C
RTCVALH                           00000F5D
RTCVALL                           00000F5C
RTCWREN                           00000005
RTSECSEL0                         00000001
RTSECSEL1                         00000002
RX1                               00000007
RX2                               00000002
RX9                               00000006
RX91                              00000006
RX92                              00000006
RX9D                              00000000
RX9D1                             00000000
RX9D2                             00000000
RXDTP                             00000005
R_NOT_W                           00000002
R_W                               00000002
S                                 00000003
SBOREN                            00000006
SCK1                              00000003
SCK2                              00000006
SCKLI                             00000000
SCL1                              00000003
SCL2                              00000006
SCS0                              00000000
SCS1                              00000001
SDA1                              00000004
SDA2                              00000005
SDI1                              00000004
SDI2                              00000005
SDO1                              00000005
SDO2                              00000004
SEN                               00000000
SENDB                             00000003
MPASM 5.81                         LEARN.ASM   2-20-2020  11:22:54         PAGE 34


SYMBOL TABLE
  LABEL                             VALUE 

SENDB1                            00000003
SENDB2                            00000003
SMP                               00000007
SOSCEN                            00000003
SOSCGO                            00000003
SOSCI                             00000001
SOSCO                             00000000
SOSCRUN                           00000006
SP0                               00000000
SP1                               00000001
SP2                               00000002
SP3                               00000003
SP4                               00000004
SPBRG                             00000FAF
SPBRG1                            00000FAF
SPBRG2                            00000F1E
SPBRGH1                           00000FD4
SPBRGH2                           00000F1F
SPEN                              00000007
SPEN1                             00000007
SPEN2                             00000007
SPI1OD                            00000007
SPI2OD                            00000000
SREN                              00000005
SREN1                             00000005
SREN2                             00000005
SRETEN                            00000004
SS1                               00000007
SSP1ADD                           00000FC8
SSP1BUF                           00000FC9
SSP1CON1                          00000FC6
SSP1CON2                          00000FC5
SSP1IE                            00000003
SSP1IF                            00000003
SSP1IP                            00000003
SSP1MD                            00000001
SSP1MSK                           00000FC8
SSP1STAT                          00000FC7
SSP2ADD                           00000F69
SSP2BUF                           00000F6A
SSP2CON1                          00000F67
SSP2CON2                          00000F66
SSP2IE                            00000005
SSP2IF                            00000005
SSP2IP                            00000005
SSP2MD                            00000002
SSP2MSK                           00000F69
SSP2STAT                          00000F68
SSPADD                            00000FC8
SSPBUF                            00000FC9
SSPCON1                           00000FC6
SSPCON2                           00000FC5
SSPEN                             00000005
MPASM 5.81                         LEARN.ASM   2-20-2020  11:22:54         PAGE 35


SYMBOL TABLE
  LABEL                             VALUE 

SSPIE                             00000003
SSPIF                             00000003
SSPIP                             00000003
SSPM0                             00000000
SSPM1                             00000001
SSPM2                             00000002
SSPM3                             00000003
SSPOV                             00000006
SSPSTAT                           00000FC7
STATUS                            00000FD8
STKFUL                            00000007
STKOVF                            00000007
STKPTR                            00000FFC
STKUNF                            00000006
STRA                              00000000
STRB                              00000001
STRC                              00000002
STRD                              00000003
STRSYNC                           00000004
SWDTE                             00000000
SWDTEN                            00000000
SYNC                              00000004
SYNC1                             00000004
SYNC2                             00000004
T08BIT                            00000006
T0CKI                             00000004
T0CON                             00000FD5
T0CS                              00000005
T0IE                              00000005
T0IF                              00000002
T0IP                              00000002
T0PS0                             00000000
T0PS1                             00000001
T0PS2                             00000002
T0SE                              00000004
T10CKPS0                          00000000
T10CKPS1                          00000001
T10CON                            00000F33
T10OUTPS0                         00000003
T10OUTPS1                         00000004
T10OUTPS2                         00000005
T10OUTPS3                         00000006
T12CKPS0                          00000000
T12CKPS1                          00000001
T12CON                            00000F30
T12OUTPS0                         00000003
T12OUTPS1                         00000004
T12OUTPS2                         00000005
T12OUTPS3                         00000006
T1CKI                             00000005
T1CKPS0                           00000004
T1CKPS1                           00000005
T1CON                             00000FCD
MPASM 5.81                         LEARN.ASM   2-20-2020  11:22:54         PAGE 36


SYMBOL TABLE
  LABEL                             VALUE 

T1G                               00000005
T1GCON                            00000FAA
T1GGO                             00000003
T1GGO_NOT_T1DONE                  00000003
T1GPOL                            00000006
T1GSPM                            00000004
T1GSS0                            00000000
T1GSS1                            00000001
T1GTM                             00000005
T1GVAL                            00000002
T2CKPS0                           00000000
T2CKPS1                           00000001
T2CON                             00000FCA
T2OUTPS0                          00000003
T2OUTPS1                          00000004
T2OUTPS2                          00000005
T2OUTPS3                          00000006
T3CKI                             00000005
T3CKPS0                           00000004
T3CKPS1                           00000005
T3CON                             00000FB1
T3G                               00000005
T3GCON                            00000FB0
T3GGO                             00000003
T3GGO_NOT_T3DONE                  00000003
T3GPOL                            00000006
T3GSPM                            00000004
T3GSS0                            00000000
T3GSS1                            00000001
T3GTM                             00000005
T3GVAL                            00000002
T4CKPS0                           00000000
T4CKPS1                           00000001
T4CON                             00000F6B
T4OUTPS0                          00000003
T4OUTPS1                          00000004
T4OUTPS2                          00000005
T4OUTPS3                          00000006
T5CKI                             00000001
T5CKPS0                           00000004
T5CKPS1                           00000005
T5CON                             00000F7B
T5G                               00000004
T5GCON                            00000F7A
T5GGO                             00000003
T5GGO_NOT_T5DONE                  00000003
T5GPOL                            00000006
T5GSPM                            00000004
T5GSS0                            00000000
T5GSS1                            00000001
T5GTM                             00000005
T5GVAL                            00000002
T6CKPS0                           00000000
MPASM 5.81                         LEARN.ASM   2-20-2020  11:22:54         PAGE 37


SYMBOL TABLE
  LABEL                             VALUE 

T6CKPS1                           00000001
T6CON                             00000F39
T6OUTPS0                          00000003
T6OUTPS1                          00000004
T6OUTPS2                          00000005
T6OUTPS3                          00000006
T7CKI                             00000004
T7CKPS0                           00000004
T7CKPS1                           00000005
T7CON                             00000F3D
T7G                               00000001
T7GCON                            00000F3C
T7GGO                             00000003
T7GGO_NOT_T7DONE                  00000003
T7GPOL                            00000006
T7GSPM                            00000004
T7GSS0                            00000000
T7GSS1                            00000001
T7GTM                             00000005
T7GVAL                            00000002
T8CKPS0                           00000000
T8CKPS1                           00000001
T8CON                             00000F36
T8OUTPS0                          00000003
T8OUTPS1                          00000004
T8OUTPS2                          00000005
T8OUTPS3                          00000006
TABLAT                            00000FF5
TBLPTR                            00000FF6
TBLPTRH                           00000FF7
TBLPTRL                           00000FF6
TBLPTRU                           00000FF8
TGEN                              00000004
TMR0                              00000FD6
TMR0H                             00000FD7
TMR0IE                            00000005
TMR0IF                            00000002
TMR0IP                            00000002
TMR0L                             00000FD6
TMR0ON                            00000007
TMR1                              00000FCE
TMR10                             00000F35
TMR10IE                           00000005
TMR10IF                           00000005
TMR10IP                           00000005
TMR10MD                           00000007
TMR10ON                           00000002
TMR12                             00000F32
TMR12IE                           00000006
TMR12IF                           00000006
TMR12IP                           00000006
TMR12MD                           00000000
TMR12ON                           00000002
MPASM 5.81                         LEARN.ASM   2-20-2020  11:22:54         PAGE 38


SYMBOL TABLE
  LABEL                             VALUE 

TMR1CS0                           00000006
TMR1CS1                           00000007
TMR1GE                            00000007
TMR1GIE                           00000002
TMR1GIF                           00000002
TMR1GIP                           00000002
TMR1H                             00000FCF
TMR1IE                            00000000
TMR1IF                            00000000
TMR1IP                            00000000
TMR1L                             00000FCE
TMR1MD                            00000001
TMR1ON                            00000000
TMR2                              00000FCC
TMR2IE                            00000001
TMR2IF                            00000001
TMR2IP                            00000001
TMR2MD                            00000002
TMR2ON                            00000002
TMR3                              00000FB2
TMR3CS0                           00000006
TMR3CS1                           00000007
TMR3GE                            00000007
TMR3GIE                           00000000
TMR3GIF                           00000000
TMR3GIP                           00000000
TMR3H                             00000FB3
TMR3IE                            00000001
TMR3IF                            00000001
TMR3IP                            00000001
TMR3L                             00000FB2
TMR3MD                            00000003
TMR3ON                            00000000
TMR4                              00000F6D
TMR4IE                            00000000
TMR4IF                            00000000
TMR4IP                            00000000
TMR4MD                            00000004
TMR4ON                            00000002
TMR5                              00000F7C
TMR5CS0                           00000006
TMR5CS1                           00000007
TMR5GE                            00000007
TMR5GIE                           00000007
TMR5GIF                           00000007
TMR5GIP                           00000007
TMR5H                             00000F7D
TMR5IE                            00000001
TMR5IF                            00000001
TMR5IP                            00000001
TMR5L                             00000F7C
TMR5MD                            00000003
TMR5ON                            00000000
MPASM 5.81                         LEARN.ASM   2-20-2020  11:22:54         PAGE 39


SYMBOL TABLE
  LABEL                             VALUE 

TMR6                              00000F3B
TMR6IE                            00000002
TMR6IF                            00000002
TMR6IP                            00000002
TMR6MD                            00000004
TMR6ON                            00000002
TMR7                              00000F3E
TMR7CS0                           00000006
TMR7CS1                           00000007
TMR7GE                            00000007
TMR7GIE                           00000007
TMR7GIF                           00000007
TMR7GIP                           00000007
TMR7H                             00000F3F
TMR7IE                            00000003
TMR7IF                            00000003
TMR7IP                            00000003
TMR7L                             00000F3E
TMR7MD                            00000005
TMR7ON                            00000000
TMR8                              00000F38
TMR8IE                            00000004
TMR8IF                            00000004
TMR8IP                            00000004
TMR8MD                            00000006
TMR8ON                            00000002
TO                                00000003
TOS                               00000FFD
TOSH                              00000FFE
TOSL                              00000FFD
TOSU                              00000FFF
TRIGSEL0                          00000006
TRIGSEL1                          00000007
TRISA                             00000F92
TRISA0                            00000000
TRISA1                            00000001
TRISA2                            00000002
TRISA3                            00000003
TRISA4                            00000004
TRISA5                            00000005
TRISA6                            00000006
TRISA7                            00000007
TRISB                             00000F93
TRISB0                            00000000
TRISB1                            00000001
TRISB2                            00000002
TRISB3                            00000003
TRISB4                            00000004
TRISB5                            00000005
TRISB6                            00000006
TRISB7                            00000007
TRISC                             00000F94
TRISC0                            00000000
MPASM 5.81                         LEARN.ASM   2-20-2020  11:22:54         PAGE 40


SYMBOL TABLE
  LABEL                             VALUE 

TRISC1                            00000001
TRISC2                            00000002
TRISC3                            00000003
TRISC4                            00000004
TRISC5                            00000005
TRISC6                            00000006
TRISC7                            00000007
TRISD                             00000F95
TRISD0                            00000000
TRISD1                            00000001
TRISD2                            00000002
TRISD3                            00000003
TRISD4                            00000004
TRISD5                            00000005
TRISD6                            00000006
TRISD7                            00000007
TRISE                             00000F96
TRISE0                            00000000
TRISE1                            00000001
TRISE2                            00000002
TRISE3                            00000003
TRISE4                            00000004
TRISE5                            00000005
TRISE6                            00000006
TRISE7                            00000007
TRISF                             00000F97
TRISF1                            00000001
TRISF2                            00000002
TRISF3                            00000003
TRISF4                            00000004
TRISF5                            00000005
TRISF6                            00000006
TRISF7                            00000007
TRISG                             00000F98
TRISG0                            00000000
TRISG1                            00000001
TRISG2                            00000002
TRISG3                            00000003
TRISG4                            00000004
TRISH                             00000F99
TRISH0                            00000000
TRISH1                            00000001
TRISH2                            00000002
TRISH3                            00000003
TRISH4                            00000004
TRISH5                            00000005
TRISH6                            00000006
TRISH7                            00000007
TRISJ                             00000F9A
TRISJ0                            00000000
TRISJ1                            00000001
TRISJ2                            00000002
TRISJ3                            00000003
MPASM 5.81                         LEARN.ASM   2-20-2020  11:22:54         PAGE 41


SYMBOL TABLE
  LABEL                             VALUE 

TRISJ4                            00000004
TRISJ5                            00000005
TRISJ6                            00000006
TRISJ7                            00000007
TRMT                              00000001
TRMT1                             00000001
TRMT2                             00000001
TUN0                              00000000
TUN1                              00000001
TUN2                              00000002
TUN3                              00000003
TUN4                              00000004
TUN5                              00000005
TX1                               00000006
TX1IE                             00000004
TX1IF                             00000004
TX1IP                             00000004
TX2                               00000001
TX2IE                             00000004
TX2IF                             00000004
TX2IP                             00000004
TX8_9                             00000006
TX9                               00000006
TX91                              00000006
TX92                              00000006
TX9D                              00000000
TX9D1                             00000000
TX9D2                             00000000
TXCKP                             00000004
TXD8                              00000000
TXEN                              00000005
TXEN1                             00000005
TXEN2                             00000005
TXIE                              00000004
TXIF                              00000004
TXIP                              00000004
TXREG                             00000FAD
TXREG1                            00000FAD
TXREG2                            00000F1C
TXSTA                             00000FAC
TXSTA1                            00000FAC
TXSTA2                            00000F21
U1OD                              00000006
U2OD                              00000007
UA                                00000001
UART1MD                           00000003
UART2MD                           00000004
UB                                00000007
ULPEN                             00000002
ULPLVL                            00000005
ULPSINK                           00000001
ULPWU                             00000000
VCFG0                             00000004
MPASM 5.81                         LEARN.ASM   2-20-2020  11:22:54         PAGE 42


SYMBOL TABLE
  LABEL                             VALUE 

VCFG1                             00000005
VDIRMAG                           00000007
VNCFG                             00000003
VREF_MINUS                        00000002
VREF_PLUS                         00000003
W                                 00000000
WAIT0                             00000004
WAIT1                             00000005
WCOL                              00000007
WDTCON                            00000FD1
WM0                               00000000
WM1                               00000001
WR                                00000001
WREG                              00000FE8
WREN                              00000002
WRERR                             00000003
WRH                               00000003
WRL                               00000002
WUE                               00000001
Z                                 00000002
_ABW_MM_3L                        000000FF
_ABW_XM12_3L                      000000EF
_ABW_XM16_3L                      000000DF
_ABW_XM20_3L                      000000CF
_BBSIZ_BB1K_4L                    000000EF
_BBSIZ_BB2K_4L                    000000FF
_BOREN_NOSLP_2L                   000000FD
_BOREN_OFF_2L                     000000F9
_BOREN_ON_2L                      000000FB
_BOREN_SBORDIS_2L                 000000FF
_BORPWR_HIGH_2L                   000000DF
_BORPWR_LOW_2L                    0000009F
_BORPWR_MEDIUM_2L                 000000BF
_BORPWR_ZPBORMV_2L                000000FF
_BORV_0_2L                        000000E7
_BORV_1_2L                        000000EF
_BORV_2_2L                        000000F7
_BORV_3_2L                        000000FF
_BW_16_3L                         000000FF
_BW_8_3L                          000000BF
_CCP2MX_PORTBE_3H                 000000FE
_CCP2MX_PORTC_3H                  000000FF
_CONFIG1H                         00300001
_CONFIG1L                         00300000
_CONFIG2H                         00300003
_CONFIG2L                         00300002
_CONFIG3H                         00300005
_CONFIG3L                         00300004
_CONFIG4L                         00300006
_CONFIG5H                         00300009
_CONFIG5L                         00300008
_CONFIG6H                         0030000B
_CONFIG6L                         0030000A
MPASM 5.81                         LEARN.ASM   2-20-2020  11:22:54         PAGE 43


SYMBOL TABLE
  LABEL                             VALUE 

_CONFIG7H                         0030000D
_CONFIG7L                         0030000C
_CP0_OFF_5L                       000000FF
_CP0_ON_5L                        000000FE
_CP1_OFF_5L                       000000FF
_CP1_ON_5L                        000000FD
_CP2_OFF_5L                       000000FF
_CP2_ON_5L                        000000FB
_CP3_OFF_5L                       000000FF
_CP3_ON_5L                        000000F7
_CP4_OFF_5L                       000000FF
_CP4_ON_5L                        000000EF
_CP5_OFF_5L                       000000FF
_CP5_ON_5L                        000000DF
_CP6_OFF_5L                       000000FF
_CP6_ON_5L                        000000BF
_CP7_OFF_5L                       000000FF
_CP7_ON_5L                        0000007F
_CPB_OFF_5H                       000000FF
_CPB_ON_5H                        000000BF
_CPD_OFF_5H                       000000FF
_CPD_ON_5H                        0000007F
_DEBUG_OFF_4L                     000000FF
_DEBUG_ON_4L                      0000007F
_DEVID1                           003FFFFE
_DEVID2                           003FFFFF
_EASHFT_OFF_3L                    000000F7
_EASHFT_ON_3L                     000000FF
_EBRT0_OFF_7L                     000000FF
_EBRT0_ON_7L                      000000FE
_EBRT1_OFF_7L                     000000FF
_EBRT1_ON_7L                      000000FD
_EBRT2_OFF_7L                     000000FF
_EBRT2_ON_7L                      000000FB
_EBRT3_OFF_7L                     000000FF
_EBRT3_ON_7L                      000000F7
_EBRT4_OFF_7L                     000000FF
_EBRT4_ON_7L                      000000EF
_EBRT5_OFF_7L                     000000FF
_EBRT5_ON_7L                      000000DF
_EBRT6_OFF_7L                     000000FF
_EBRT6_ON_7L                      000000BF
_EBRT7_OFF_7L                     000000FF
_EBRT7_ON_7L                      0000007F
_EBRTB_OFF_7H                     000000FF
_EBRTB_ON_7H                      000000BF
_ECCPMX_PORTE_3H                  000000FF
_ECCPMX_PORTH_3H                  000000FD
_FCMEN_OFF_1H                     000000BF
_FCMEN_ON_1H                      000000FF
_FOSC_EC1IO_1H                    000000FC
_FOSC_EC1_1H                      000000FD
_FOSC_EC2IO_1H                    000000FA
MPASM 5.81                         LEARN.ASM   2-20-2020  11:22:54         PAGE 44


SYMBOL TABLE
  LABEL                             VALUE 

_FOSC_EC2_1H                      000000FB
_FOSC_EC3IO_1H                    000000F4
_FOSC_EC3_1H                      000000F5
_FOSC_HS1_1H                      000000F3
_FOSC_HS2_1H                      000000F2
_FOSC_INTIO1_1H                   000000F9
_FOSC_INTIO2_1H                   000000F8
_FOSC_LP_1H                       000000F0
_FOSC_RCIO_1H                     000000F7
_FOSC_RC_1H                       000000F6
_FOSC_XT_1H                       000000F1
_IDLOC0                           00200000
_IDLOC1                           00200001
_IDLOC2                           00200002
_IDLOC3                           00200003
_IDLOC4                           00200004
_IDLOC5                           00200005
_IDLOC6                           00200006
_IDLOC7                           00200007
_IESO_OFF_1H                      0000007F
_IESO_ON_1H                       000000FF
_INTOSCSEL_HIGH_1L                000000FF
_INTOSCSEL_LOW_1L                 000000FB
_MCLRE_OFF_3H                     0000007F
_MCLRE_ON_3H                      000000FF
_MSSPMSK_MSK5_3H                  000000F7
_MSSPMSK_MSK7_3H                  000000FF
_PLLCFG_OFF_1H                    000000EF
_PLLCFG_ON_1H                     000000FF
_PWRTEN_OFF_2L                    000000FF
_PWRTEN_ON_2L                     000000FE
_RETEN_OFF_1L                     000000FE
_RETEN_ON_1L                      000000FF
_RTCOSC_INTOSCREF_3L              000000FE
_RTCOSC_SOSCREF_3L                000000FF
_SOSCSEL_DIG_1L                   000000F7
_SOSCSEL_HIGH_1L                  000000FF
_SOSCSEL_LOW_1L                   000000EF
_STVREN_OFF_4L                    000000FE
_STVREN_ON_4L                     000000FF
_WAIT_OFF_3L                      000000FF
_WAIT_ON_3L                       0000007F
_WDTEN_NOSLP_2H                   000000FD
_WDTEN_OFF_2H                     000000FC
_WDTEN_ON_2H                      000000FE
_WDTEN_SWDTDIS_2H                 000000FF
_WDTPS_1024_2H                    000000AB
_WDTPS_1048576_2H                 000000FF
_WDTPS_128_2H                     0000009F
_WDTPS_131072_2H                  000000C7
_WDTPS_16384_2H                   000000BB
_WDTPS_16_2H                      00000093
_WDTPS_1_2H                       00000083
MPASM 5.81                         LEARN.ASM   2-20-2020  11:22:54         PAGE 45


SYMBOL TABLE
  LABEL                             VALUE 

_WDTPS_2048_2H                    000000AF
_WDTPS_256_2H                     000000A3
_WDTPS_262144_2H                  000000CB
_WDTPS_2_2H                       00000087
_WDTPS_32768_2H                   000000BF
_WDTPS_32_2H                      00000097
_WDTPS_4096_2H                    000000B3
_WDTPS_4_2H                       0000008B
_WDTPS_512_2H                     000000A7
_WDTPS_524288_2H                  000000CF
_WDTPS_64_2H                      0000009B
_WDTPS_65536_2H                   000000C3
_WDTPS_8192_2H                    000000B7
_WDTPS_8_2H                       0000008F
_WRT0_OFF_6L                      000000FF
_WRT0_ON_6L                       000000FE
_WRT1_OFF_6L                      000000FF
_WRT1_ON_6L                       000000FD
_WRT2_OFF_6L                      000000FF
_WRT2_ON_6L                       000000FB
_WRT3_OFF_6L                      000000FF
_WRT3_ON_6L                       000000F7
_WRT4_OFF_6L                      000000FF
_WRT4_ON_6L                       000000EF
_WRT5_OFF_6L                      000000FF
_WRT5_ON_6L                       000000DF
_WRT6_OFF_6L                      000000FF
_WRT6_ON_6L                       000000BF
_WRT7_OFF_6L                      000000FF
_WRT7_ON_6L                       0000007F
_WRTB_OFF_6H                      000000FF
_WRTB_ON_6H                       000000BF
_WRTC_OFF_6H                      000000FF
_WRTC_ON_6H                       000000DF
_WRTD_OFF_6H                      000000FF
_WRTD_ON_6H                       0000007F
_XINST_OFF_1L                     000000BF
_XINST_ON_1L                      000000FF
__18F87K22                        00000001
__DEBUG                           
__MPLAB_DEBUGGER_ICD3             1
c_11                              000001A4
c_12                              000001B4
c_13                              000001C4
c_14                              000001D4
c_15                              000001E4
c_16                              000001F4
c_17                              00000204
c_18                              00000214
c_1s                              00000254
c_2s                              00000260
c_3s                              0000026C
c_4s                              00000278
MPASM 5.81                         LEARN.ASM   2-20-2020  11:22:54         PAGE 46


SYMBOL TABLE
  LABEL                             VALUE 

c_5s                              00000284
c_6s                              00000290
c_7s                              0000029C
c_8s                              000002A8
c_9s                              000002B4
calculate                         00000138
check_1                           00000380
check_2                           0000038A
check_3                           00000394
check_5                           000003BC
check_6                           000003C6
check_7                           000003D0
check_double_result               00000194
check_single_result               00000248
column                            0000034A
column_11                         000003EA
column_12                         000003FA
column_13                         0000040A
column_14                         00000418
column_21                         00000422
column_22                         00000432
column_23                         00000442
column_24                         00000452
column_31                         0000045C
column_32                         0000046C
column_33                         0000047C
column_34                         0000048C
column_41                         00000490
column_42                         00000498
column_43                         000004A8
column_44                         000004B0
continue                          00000376
count                             00000014
counter_column                    00000001
counter_row                       00000000
cr0                               00000054
cr1                               00000060
cr2                               0000006C
cr20                              000000C6
cr21                              000000D2
cr22                              000000DE
cr23                              000000EA
cr24                              000000F6
cr25                              00000102
cr26                              0000010E
cr27                              0000011A
cr28                              00000126
cr29                              00000132
cr3                               00000078
cr4                               00000084
cr5                               00000090
cr6                               0000009C
cr7                               000000A8
MPASM 5.81                         LEARN.ASM   2-20-2020  11:22:54         PAGE 47


SYMBOL TABLE
  LABEL                             VALUE 

cr8                               000000B4
cr9                               000000C0
decode                            000003E0
delay                             000003DA
delay_1                           000004B6
delay_2                           000004C0
delay_3                           000004CA
delay_count_l1                    00000002
delay_count_l2                    00000003
delay_count_l3                    00000004
double_input                      00000162
guess                             0000000D
guess_1                           0000000E
guess_1_str                       00000012
guess_2                           0000000F
guess_2_str                       00000013
guessed                           00000150
integer                           00000009
learn                             00000024
learn_delay                       000004B2
nested_2                          000004BC
nested_3                          000004C6
output_1                          00000010
output_2                          00000011
output_double                     0000021E
output_single                     000002BA
random_number                     0000000C
read_column                       000003B2
read_row                          00000364
result                            0000000B
right                             000002F8
row_1                             0000041A
row_2                             00000454
row_3                             0000048E
rst                               00000370
setup_column                      0000039E
setup_row                         00000350
single_input                      0000022C
string                            0000000A
wrong                             000002C2

Errors   :     0
Warnings :     0 reported,     0 suppressed
Messages :     0 reported,     0 suppressed

