MPLINK 5.09, LINKER
Linker Map File - Created Thu Feb 13 17:28:49 2020

                                 Section Info
                  Section       Type    Address   Location Size(Bytes)
                ---------  ---------  ---------  ---------  ---------
                   .org_0       code   0x000000    program   0x000004
                   .cinit    romdata   0x000004    program   0x000002
                    pdata       code   0x000006    program   0x00001c
                   output       code   0x000022    program   0x000002
                   .org_1       code   0x000100    program   0x0000ba
                     main       code   0x0001ba    program   0x00013a
                      LCD       code   0x0002f4    program   0x000104
.config_300000_BUILD/DEFAULT/PRODUCTION/CONFIG.    romdata   0x300000    program   0x000001
.config_300001_BUILD/DEFAULT/PRODUCTION/CONFIG.    romdata   0x300001    program   0x000001
.config_300002_BUILD/DEFAULT/PRODUCTION/CONFIG.    romdata   0x300002    program   0x000001
.config_300003_BUILD/DEFAULT/PRODUCTION/CONFIG.    romdata   0x300003    program   0x000001
.config_300004_BUILD/DEFAULT/PRODUCTION/CONFIG.    romdata   0x300004    program   0x000001
.config_300005_BUILD/DEFAULT/PRODUCTION/CONFIG.    romdata   0x300005    program   0x000001
.config_300006_BUILD/DEFAULT/PRODUCTION/CONFIG.    romdata   0x300006    program   0x000001
.config_300008_BUILD/DEFAULT/PRODUCTION/CONFIG.    romdata   0x300008    program   0x000001
.config_300009_BUILD/DEFAULT/PRODUCTION/CONFIG.    romdata   0x300009    program   0x000001
.config_30000A_BUILD/DEFAULT/PRODUCTION/CONFIG.    romdata   0x30000a    program   0x000001
.config_30000B_BUILD/DEFAULT/PRODUCTION/CONFIG.    romdata   0x30000b    program   0x000001
.config_30000C_BUILD/DEFAULT/PRODUCTION/CONFIG.    romdata   0x30000c    program   0x000001
.config_30000D_BUILD/DEFAULT/PRODUCTION/CONFIG.    romdata   0x30000d    program   0x000001
                     acs0      udata   0x000000       data   0x00000f
                   tables      udata   0x000400       data   0x0000a0



                              Program Memory Usage 
                               Start         End      
                           ---------   ---------      
                            0x000000    0x000023      
                            0x000100    0x0003f7      
                            0x300000    0x300006      
                            0x300008    0x30000d      
            809 out of 132120 program addresses used, program memory utilization is 0%



                              Symbols - Sorted by Name
                     Name    Address   Location    Storage File                     
                ---------  ---------  ---------  --------- ---------                
           HATCH_SEQUENCE   0x000128    program     static H:\Tamagotchi\Tamagotchi.X\Tamagotchi.asm
                 Keyboard   0x0001c6    program     extern H:\Tamagotchi\Tamagotchi.X\Keyboard.asm
           Keyboard_Setup   0x0001ba    program     extern H:\Tamagotchi\Tamagotchi.X\Keyboard.asm
               LCD_Enable   0x00038e    program     static H:\Tamagotchi\Tamagotchi.X\LCD.asm
         LCD_Loop_message   0x000344    program     static H:\Tamagotchi\Tamagotchi.X\LCD.asm
          LCD_Send_Byte_D   0x00036c    program     extern H:\Tamagotchi\Tamagotchi.X\LCD.asm
          LCD_Send_Byte_I   0x000350    program     static H:\Tamagotchi\Tamagotchi.X\LCD.asm
                LCD_Setup   0x0002f4    program     extern H:\Tamagotchi\Tamagotchi.X\LCD.asm
        LCD_Write_Message   0x000342    program     extern H:\Tamagotchi\Tamagotchi.X\LCD.asm
                LCD_clear   0x0003de    program     extern H:\Tamagotchi\Tamagotchi.X\LCD.asm
                LCD_delay   0x0003d4    program     static H:\Tamagotchi\Tamagotchi.X\LCD.asm
             LCD_delay_ms   0x0003b2    program     static H:\Tamagotchi\Tamagotchi.X\LCD.asm
           LCD_delay_x4us   0x0003c0    program     static H:\Tamagotchi\Tamagotchi.X\LCD.asm
                LCD_shift   0x0003ec    program     extern H:\Tamagotchi\Tamagotchi.X\LCD.asm
                   Line_0   0x000006    program     static H:\Tamagotchi\Tamagotchi.X\Tamagotchi.asm
                   Line_1   0x000016    program     static H:\Tamagotchi\Tamagotchi.X\Tamagotchi.asm
         PRESS_A_TO_HATCH   0x000114    program     static H:\Tamagotchi\Tamagotchi.X\Tamagotchi.asm
                  check_1   0x0001f0    program     static H:\Tamagotchi\Tamagotchi.X\Keyboard.asm
                  check_1   0x000176    program     static H:\Tamagotchi\Tamagotchi.X\Tamagotchi.asm
                  check_2   0x0001fa    program     static H:\Tamagotchi\Tamagotchi.X\Keyboard.asm
                  check_2   0x000180    program     static H:\Tamagotchi\Tamagotchi.X\Tamagotchi.asm
                  check_3   0x000204    program     static H:\Tamagotchi\Tamagotchi.X\Keyboard.asm
                  check_3   0x00018a    program     static H:\Tamagotchi\Tamagotchi.X\Tamagotchi.asm
                  check_5   0x00022c    program     static H:\Tamagotchi\Tamagotchi.X\Keyboard.asm
                  check_6   0x000236    program     static H:\Tamagotchi\Tamagotchi.X\Keyboard.asm
                  check_7   0x000240    program     static H:\Tamagotchi\Tamagotchi.X\Keyboard.asm
                   column   0x0001cc    program     static H:\Tamagotchi\Tamagotchi.X\Keyboard.asm
                column_11   0x00025a    program     static H:\Tamagotchi\Tamagotchi.X\Keyboard.asm
                column_12   0x000264    program     static H:\Tamagotchi\Tamagotchi.X\Keyboard.asm
                column_13   0x00026e    program     static H:\Tamagotchi\Tamagotchi.X\Keyboard.asm
                column_14   0x000278    program     static H:\Tamagotchi\Tamagotchi.X\Keyboard.asm
                column_21   0x000284    program     static H:\Tamagotchi\Tamagotchi.X\Keyboard.asm
                column_22   0x00028e    program     static H:\Tamagotchi\Tamagotchi.X\Keyboard.asm
                column_23   0x000298    program     static H:\Tamagotchi\Tamagotchi.X\Keyboard.asm
                column_24   0x0002a2    program     static H:\Tamagotchi\Tamagotchi.X\Keyboard.asm
                column_31   0x0002ae    program     static H:\Tamagotchi\Tamagotchi.X\Keyboard.asm
                column_32   0x0002b8    program     static H:\Tamagotchi\Tamagotchi.X\Keyboard.asm
                column_33   0x0002c2    program     static H:\Tamagotchi\Tamagotchi.X\Keyboard.asm
                column_34   0x0002cc    program     static H:\Tamagotchi\Tamagotchi.X\Keyboard.asm
                column_41   0x0002d2    program     static H:\Tamagotchi\Tamagotchi.X\Keyboard.asm
                column_42   0x0002dc    program     static H:\Tamagotchi\Tamagotchi.X\Keyboard.asm
                column_43   0x0002e6    program     static H:\Tamagotchi\Tamagotchi.X\Keyboard.asm
                column_44   0x0002f0    program     static H:\Tamagotchi\Tamagotchi.X\Keyboard.asm
                        d   0x0001b4    program     static H:\Tamagotchi\Tamagotchi.X\Tamagotchi.asm
                   decode   0x000250    program     static H:\Tamagotchi\Tamagotchi.X\Keyboard.asm
                    delay   0x0001b0    program     static H:\Tamagotchi\Tamagotchi.X\Tamagotchi.asm
                    delay   0x00024a    program     static H:\Tamagotchi\Tamagotchi.X\Keyboard.asm
                 finished   0x0001ba    program     static H:\Tamagotchi\Tamagotchi.X\Tamagotchi.asm
                   lcdlp1   0x0003d6    program     static H:\Tamagotchi\Tamagotchi.X\LCD.asm
                   lcdlp2   0x0003b4    program     static H:\Tamagotchi\Tamagotchi.X\LCD.asm
                   loop_0   0x00013a    program     static H:\Tamagotchi\Tamagotchi.X\Tamagotchi.asm
                   loop_1   0x00015e    program     static H:\Tamagotchi\Tamagotchi.X\Tamagotchi.asm
                     main   0x000110    program     static H:\Tamagotchi\Tamagotchi.X\Tamagotchi.asm
  output_PRESS_A_TO_HATCH   0x00012a    program     static H:\Tamagotchi\Tamagotchi.X\Tamagotchi.asm
   output_starting_screen   0x000148    program     static H:\Tamagotchi\Tamagotchi.X\Tamagotchi.asm
              read_column   0x000222    program     static H:\Tamagotchi\Tamagotchi.X\Keyboard.asm
                 read_row   0x0001e6    program     static H:\Tamagotchi\Tamagotchi.X\Keyboard.asm
                    row_1   0x00027c    program     static H:\Tamagotchi\Tamagotchi.X\Keyboard.asm
                    row_2   0x0002a6    program     static H:\Tamagotchi\Tamagotchi.X\Keyboard.asm
                    row_3   0x0002d0    program     static H:\Tamagotchi\Tamagotchi.X\Keyboard.asm
                    setup   0x000100    program     static H:\Tamagotchi\Tamagotchi.X\Tamagotchi.asm
             setup_column   0x00020e    program     static H:\Tamagotchi\Tamagotchi.X\Keyboard.asm
                setup_row   0x0001d2    program     static H:\Tamagotchi\Tamagotchi.X\Keyboard.asm
                  shift_1   0x00018c    program     static H:\Tamagotchi\Tamagotchi.X\Tamagotchi.asm
                  shift_2   0x000194    program     static H:\Tamagotchi\Tamagotchi.X\Tamagotchi.asm
          shift_3_and_egg   0x00019c    program     static H:\Tamagotchi\Tamagotchi.X\Tamagotchi.asm
             shift_checks   0x00016c    program     static H:\Tamagotchi\Tamagotchi.X\Tamagotchi.asm
                    start   0x0001ba    program     static H:\Tamagotchi\Tamagotchi.X\Keyboard.asm
                   symbol   0x000022    program     static H:\Tamagotchi\Tamagotchi.X\Keyboard.asm
              Key_Pressed   0x000480       data     static H:\Tamagotchi\Tamagotchi.X\Tamagotchi.asm
                LCD_cnt_h   0x000001       data     static H:\Tamagotchi\Tamagotchi.X\LCD.asm
                LCD_cnt_l   0x000000       data     static H:\Tamagotchi\Tamagotchi.X\LCD.asm
               LCD_cnt_ms   0x000002       data     static H:\Tamagotchi\Tamagotchi.X\LCD.asm
              LCD_counter   0x000004       data     static H:\Tamagotchi\Tamagotchi.X\LCD.asm
                  LCD_tmp   0x000003       data     static H:\Tamagotchi\Tamagotchi.X\LCD.asm
           counter_column   0x00000e       data     static H:\Tamagotchi\Tamagotchi.X\Keyboard.asm
           counter_column   0x000006       data     static H:\Tamagotchi\Tamagotchi.X\Tamagotchi.asm
             counter_food   0x000009       data     static H:\Tamagotchi\Tamagotchi.X\Tamagotchi.asm
        counter_happiness   0x000007       data     static H:\Tamagotchi\Tamagotchi.X\Tamagotchi.asm
counter_happiness_decrement   0x000008       data     static H:\Tamagotchi\Tamagotchi.X\Tamagotchi.asm
             counter_life   0x00000a       data     static H:\Tamagotchi\Tamagotchi.X\Tamagotchi.asm
           counter_output   0x00000b       data     static H:\Tamagotchi\Tamagotchi.X\Tamagotchi.asm
              counter_row   0x00000d       data     static H:\Tamagotchi\Tamagotchi.X\Keyboard.asm
              counter_row   0x000005       data     static H:\Tamagotchi\Tamagotchi.X\Tamagotchi.asm
              delay_count   0x00000c       data     static H:\Tamagotchi\Tamagotchi.X\Tamagotchi.asm
                  myArray   0x000400       data     static H:\Tamagotchi\Tamagotchi.X\Tamagotchi.asm



                              Symbols - Sorted by Address
                     Name    Address   Location    Storage File                     
                ---------  ---------  ---------  --------- ---------                
                   Line_0   0x000006    program     static H:\Tamagotchi\Tamagotchi.X\Tamagotchi.asm
                   Line_1   0x000016    program     static H:\Tamagotchi\Tamagotchi.X\Tamagotchi.asm
                   symbol   0x000022    program     static H:\Tamagotchi\Tamagotchi.X\Keyboard.asm
                    setup   0x000100    program     static H:\Tamagotchi\Tamagotchi.X\Tamagotchi.asm
                     main   0x000110    program     static H:\Tamagotchi\Tamagotchi.X\Tamagotchi.asm
         PRESS_A_TO_HATCH   0x000114    program     static H:\Tamagotchi\Tamagotchi.X\Tamagotchi.asm
           HATCH_SEQUENCE   0x000128    program     static H:\Tamagotchi\Tamagotchi.X\Tamagotchi.asm
  output_PRESS_A_TO_HATCH   0x00012a    program     static H:\Tamagotchi\Tamagotchi.X\Tamagotchi.asm
                   loop_0   0x00013a    program     static H:\Tamagotchi\Tamagotchi.X\Tamagotchi.asm
   output_starting_screen   0x000148    program     static H:\Tamagotchi\Tamagotchi.X\Tamagotchi.asm
                   loop_1   0x00015e    program     static H:\Tamagotchi\Tamagotchi.X\Tamagotchi.asm
             shift_checks   0x00016c    program     static H:\Tamagotchi\Tamagotchi.X\Tamagotchi.asm
                  check_1   0x000176    program     static H:\Tamagotchi\Tamagotchi.X\Tamagotchi.asm
                  check_2   0x000180    program     static H:\Tamagotchi\Tamagotchi.X\Tamagotchi.asm
                  check_3   0x00018a    program     static H:\Tamagotchi\Tamagotchi.X\Tamagotchi.asm
                  shift_1   0x00018c    program     static H:\Tamagotchi\Tamagotchi.X\Tamagotchi.asm
                  shift_2   0x000194    program     static H:\Tamagotchi\Tamagotchi.X\Tamagotchi.asm
          shift_3_and_egg   0x00019c    program     static H:\Tamagotchi\Tamagotchi.X\Tamagotchi.asm
                    delay   0x0001b0    program     static H:\Tamagotchi\Tamagotchi.X\Tamagotchi.asm
                        d   0x0001b4    program     static H:\Tamagotchi\Tamagotchi.X\Tamagotchi.asm
                    start   0x0001ba    program     static H:\Tamagotchi\Tamagotchi.X\Keyboard.asm
                 finished   0x0001ba    program     static H:\Tamagotchi\Tamagotchi.X\Tamagotchi.asm
           Keyboard_Setup   0x0001ba    program     extern H:\Tamagotchi\Tamagotchi.X\Keyboard.asm
                 Keyboard   0x0001c6    program     extern H:\Tamagotchi\Tamagotchi.X\Keyboard.asm
                   column   0x0001cc    program     static H:\Tamagotchi\Tamagotchi.X\Keyboard.asm
                setup_row   0x0001d2    program     static H:\Tamagotchi\Tamagotchi.X\Keyboard.asm
                 read_row   0x0001e6    program     static H:\Tamagotchi\Tamagotchi.X\Keyboard.asm
                  check_1   0x0001f0    program     static H:\Tamagotchi\Tamagotchi.X\Keyboard.asm
                  check_2   0x0001fa    program     static H:\Tamagotchi\Tamagotchi.X\Keyboard.asm
                  check_3   0x000204    program     static H:\Tamagotchi\Tamagotchi.X\Keyboard.asm
             setup_column   0x00020e    program     static H:\Tamagotchi\Tamagotchi.X\Keyboard.asm
              read_column   0x000222    program     static H:\Tamagotchi\Tamagotchi.X\Keyboard.asm
                  check_5   0x00022c    program     static H:\Tamagotchi\Tamagotchi.X\Keyboard.asm
                  check_6   0x000236    program     static H:\Tamagotchi\Tamagotchi.X\Keyboard.asm
                  check_7   0x000240    program     static H:\Tamagotchi\Tamagotchi.X\Keyboard.asm
                    delay   0x00024a    program     static H:\Tamagotchi\Tamagotchi.X\Keyboard.asm
                   decode   0x000250    program     static H:\Tamagotchi\Tamagotchi.X\Keyboard.asm
                column_11   0x00025a    program     static H:\Tamagotchi\Tamagotchi.X\Keyboard.asm
                column_12   0x000264    program     static H:\Tamagotchi\Tamagotchi.X\Keyboard.asm
                column_13   0x00026e    program     static H:\Tamagotchi\Tamagotchi.X\Keyboard.asm
                column_14   0x000278    program     static H:\Tamagotchi\Tamagotchi.X\Keyboard.asm
                    row_1   0x00027c    program     static H:\Tamagotchi\Tamagotchi.X\Keyboard.asm
                column_21   0x000284    program     static H:\Tamagotchi\Tamagotchi.X\Keyboard.asm
                column_22   0x00028e    program     static H:\Tamagotchi\Tamagotchi.X\Keyboard.asm
                column_23   0x000298    program     static H:\Tamagotchi\Tamagotchi.X\Keyboard.asm
                column_24   0x0002a2    program     static H:\Tamagotchi\Tamagotchi.X\Keyboard.asm
                    row_2   0x0002a6    program     static H:\Tamagotchi\Tamagotchi.X\Keyboard.asm
                column_31   0x0002ae    program     static H:\Tamagotchi\Tamagotchi.X\Keyboard.asm
                column_32   0x0002b8    program     static H:\Tamagotchi\Tamagotchi.X\Keyboard.asm
                column_33   0x0002c2    program     static H:\Tamagotchi\Tamagotchi.X\Keyboard.asm
                column_34   0x0002cc    program     static H:\Tamagotchi\Tamagotchi.X\Keyboard.asm
                    row_3   0x0002d0    program     static H:\Tamagotchi\Tamagotchi.X\Keyboard.asm
                column_41   0x0002d2    program     static H:\Tamagotchi\Tamagotchi.X\Keyboard.asm
                column_42   0x0002dc    program     static H:\Tamagotchi\Tamagotchi.X\Keyboard.asm
                column_43   0x0002e6    program     static H:\Tamagotchi\Tamagotchi.X\Keyboard.asm
                column_44   0x0002f0    program     static H:\Tamagotchi\Tamagotchi.X\Keyboard.asm
                LCD_Setup   0x0002f4    program     extern H:\Tamagotchi\Tamagotchi.X\LCD.asm
        LCD_Write_Message   0x000342    program     extern H:\Tamagotchi\Tamagotchi.X\LCD.asm
         LCD_Loop_message   0x000344    program     static H:\Tamagotchi\Tamagotchi.X\LCD.asm
          LCD_Send_Byte_I   0x000350    program     static H:\Tamagotchi\Tamagotchi.X\LCD.asm
          LCD_Send_Byte_D   0x00036c    program     extern H:\Tamagotchi\Tamagotchi.X\LCD.asm
               LCD_Enable   0x00038e    program     static H:\Tamagotchi\Tamagotchi.X\LCD.asm
             LCD_delay_ms   0x0003b2    program     static H:\Tamagotchi\Tamagotchi.X\LCD.asm
                   lcdlp2   0x0003b4    program     static H:\Tamagotchi\Tamagotchi.X\LCD.asm
           LCD_delay_x4us   0x0003c0    program     static H:\Tamagotchi\Tamagotchi.X\LCD.asm
                LCD_delay   0x0003d4    program     static H:\Tamagotchi\Tamagotchi.X\LCD.asm
                   lcdlp1   0x0003d6    program     static H:\Tamagotchi\Tamagotchi.X\LCD.asm
                LCD_clear   0x0003de    program     extern H:\Tamagotchi\Tamagotchi.X\LCD.asm
                LCD_shift   0x0003ec    program     extern H:\Tamagotchi\Tamagotchi.X\LCD.asm
                LCD_cnt_l   0x000000       data     static H:\Tamagotchi\Tamagotchi.X\LCD.asm
                LCD_cnt_h   0x000001       data     static H:\Tamagotchi\Tamagotchi.X\LCD.asm
               LCD_cnt_ms   0x000002       data     static H:\Tamagotchi\Tamagotchi.X\LCD.asm
                  LCD_tmp   0x000003       data     static H:\Tamagotchi\Tamagotchi.X\LCD.asm
              LCD_counter   0x000004       data     static H:\Tamagotchi\Tamagotchi.X\LCD.asm
              counter_row   0x000005       data     static H:\Tamagotchi\Tamagotchi.X\Tamagotchi.asm
           counter_column   0x000006       data     static H:\Tamagotchi\Tamagotchi.X\Tamagotchi.asm
        counter_happiness   0x000007       data     static H:\Tamagotchi\Tamagotchi.X\Tamagotchi.asm
counter_happiness_decrement   0x000008       data     static H:\Tamagotchi\Tamagotchi.X\Tamagotchi.asm
             counter_food   0x000009       data     static H:\Tamagotchi\Tamagotchi.X\Tamagotchi.asm
             counter_life   0x00000a       data     static H:\Tamagotchi\Tamagotchi.X\Tamagotchi.asm
           counter_output   0x00000b       data     static H:\Tamagotchi\Tamagotchi.X\Tamagotchi.asm
              delay_count   0x00000c       data     static H:\Tamagotchi\Tamagotchi.X\Tamagotchi.asm
              counter_row   0x00000d       data     static H:\Tamagotchi\Tamagotchi.X\Keyboard.asm
           counter_column   0x00000e       data     static H:\Tamagotchi\Tamagotchi.X\Keyboard.asm
                  myArray   0x000400       data     static H:\Tamagotchi\Tamagotchi.X\Tamagotchi.asm
              Key_Pressed   0x000480       data     static H:\Tamagotchi\Tamagotchi.X\Tamagotchi.asm


